

Microchip MPLAB XC8 Assembler V2.05 build -831301201 
                                                                                               Tue Apr 30 15:24:54 2019

Microchip MPLAB XC8 C Compiler v2.05 (Free license) build 20181220022703 Og1 
     1                           	processor	18F4520
     2                           	fnconf	rparam,??,?,0
     3                           	opt	pw 120
     4                           	opt	flic
     5                           	psect	idataCOMRAM,global,class=CODE,delta=1,noexec
     6                           	psect	cinit,global,reloc=2,class=CODE,delta=1
     7                           	psect	dataCOMRAM,global,class=COMRAM,space=1,delta=1,noexec
     8                           	psect	cstackCOMRAM,global,class=COMRAM,space=1,delta=1,noexec
     9                           	psect	text0,global,reloc=2,class=CODE,delta=1
    10                           	psect	text1,global,reloc=2,class=CODE,delta=1
    11                           	psect	text2,global,reloc=2,class=CODE,delta=1
    12                           	psect	text3,global,reloc=2,class=CODE,delta=1,group=1
    13                           	psect	text4,global,reloc=2,class=CODE,delta=1,group=1
    14                           	psect	text5,global,reloc=2,class=CODE,delta=1,group=1
    15                           	psect	text6,global,reloc=2,class=CODE,delta=1,group=1
    16                           	psect	text7,global,reloc=2,class=CODE,delta=1,group=1
    17                           	psect	text8,global,reloc=2,class=CODE,delta=1
    18                           	psect	text9,global,reloc=2,class=CODE,delta=1
    19                           	psect	text10,global,reloc=2,class=CODE,delta=1,group=1
    20                           	psect	text11,global,reloc=2,class=CODE,delta=1
    21                           	psect	text12,global,reloc=2,class=CODE,delta=1
    22                           	psect	intsave_regs,global,class=BIGRAM,space=1,delta=1,noexec
    23                           	psect	rparam,global,class=COMRAM,space=1,delta=1,noexec
    24  0000                     
    25                           ; Version 2.05
    26                           ; Generated 20/12/2018 GMT
    27                           ; 
    28                           ; Copyright © 2018, Microchip Technology Inc. and its subsidiaries ("Microchip")
    29                           ; All rights reserved.
    30                           ; 
    31                           ; This software is developed by Microchip Technology Inc. and its subsidiaries ("Microch
      +                          ip").
    32                           ; 
    33                           ; Redistribution and use in source and binary forms, with or without modification, are
    34                           ; permitted provided that the following conditions are met:
    35                           ; 
    36                           ;     1. Redistributions of source code must retain the above copyright notice, this lis
      +                          t of
    37                           ;        conditions and the following disclaimer.
    38                           ; 
    39                           ;     2. Redistributions in binary form must reproduce the above copyright notice, this 
      +                          list
    40                           ;        of conditions and the following disclaimer in the documentation and/or other
    41                           ;        materials provided with the distribution.
    42                           ; 
    43                           ;     3. Microchip's name may not be used to endorse or promote products derived from th
      +                          is
    44                           ;        software without specific prior written permission.
    45                           ; 
    46                           ; THIS SOFTWARE IS PROVIDED BY MICROCHIP "AS IS" AND ANY EXPRESS OR IMPLIED WARRANTIES,
    47                           ; INCLUDING, BUT NOT LIMITED TO, THE IMPLIED WARRANTIES OF MERCHANTABILITY AND FITNESS F
      +                          OR
    48                           ; PURPOSE ARE DISCLAIMED.  IN NO EVENT SHALL MICROCHIP BE LIABLE FOR ANY DIRECT, INDIREC
      +                          T,
    49                           ; INCIDENTAL, SPECIAL, EXEMPLARY, OR CONSEQUENTIAL DAMAGES (INCLUDING BUT NOT LIMITED TO
    50                           ; PROCUREMENT OF SUBSTITUTE GOODS OR SERVICES; LOSS OF USE, DATA OR PROFITS; OR BUSINESS
    51                           ; INTERRUPTION) HOWSOEVER CAUSED AND ON ANY THEORY OF LIABILITY, WHETHER IN CONTRACT, ST
      +                          RICT
    52                           ; LIABILITY, OR TORT (INCLUDING NEGLIGENCE OR OTHERWISE) ARISING IN ANY WAY OUT OF THE U
      +                          SE OF
    53                           ; THIS SOFTWARE, EVEN IF ADVISED OF THE POSSIBILITY OF SUCH DAMAGE.
    54                           ; 
    55                           ; 
    56                           ; Code-generator required, PIC18F4520 Definitions
    57                           ; 
    58                           ; SFR Addresses
    59  0000                     
    60                           	psect	idataCOMRAM
    61  006EEB                     __pidataCOMRAM:
    62                           	opt callstack 0
    63                           
    64                           ;initializer for main@F2438
    65  006EEB  5A                 	db	90
    66  006EEC  5A                 	db	90
    67  006EED  00                 	db	0
    68  006EEE  5A                 	db	90
    69  006EEF  5A                 	db	90
    70  006EF0  0A                 	db	10
    71  006EF1  5A                 	db	90
    72  0000                     _PORTB	set	3969
    73  0000                     _TRISB	set	3987
    74  0000                     _TRISC6	set	31910
    75  0000                     _TRISC7	set	31911
    76  0000                     _RCREG	set	4014
    77  0000                     _SPBRG	set	4015
    78  0000                     _RCIE	set	31981
    79  0000                     _IRCF0	set	32412
    80  0000                     _IRCF1	set	32413
    81  0000                     _IRCF2	set	32414
    82  0000                     _OERR	set	32089
    83  0000                     _RCIF	set	31989
    84  0000                     _TXEN	set	32101
    85  0000                     _CREN	set	32092
    86  0000                     _SPEN	set	32095
    87  0000                     _SYNC	set	32100
    88  0000                     _BRGH	set	32098
    89  0000                     _TMR0L	set	4054
    90  0000                     _TMR0H	set	4055
    91  0000                     _TMR0ON	set	32431
    92  0000                     _PSA	set	32427
    93  0000                     _T0CS	set	32429
    94  0000                     _T08BIT	set	32430
    95  0000                     _TMR0IF	set	32658
    96  0000                     _GIE	set	32663
    97                           
    98                           ; #config settings
    99  0000                     
   100                           	psect	cinit
   101  006F3E                     __pcinit:
   102                           	opt callstack 0
   103  006F3E                     start_initialization:
   104                           	opt callstack 0
   105  006F3E                     __initialization:
   106                           	opt callstack 0
   107                           
   108                           ; Initialize objects allocated to COMRAM (7 bytes)
   109                           ; load TBLPTR registers with __pidataCOMRAM
   110  006F3E  0EEB               	movlw	low __pidataCOMRAM
   111  006F40  6EF6               	movwf	tblptrl,c
   112  006F42  0E6E               	movlw	high __pidataCOMRAM
   113  006F44  6EF7               	movwf	tblptrh,c
   114  006F46  0E00               	movlw	low (__pidataCOMRAM shr (0+16))
   115  006F48  6EF8               	movwf	tblptru,c
   116  006F4A  EE00  F06C         	lfsr	0,__pdataCOMRAM
   117  006F4E  EE10 F007          	lfsr	1,7
   118  006F52                     copy_data0:
   119  006F52  0009               	tblrd		*+
   120  006F54  CFF5 FFEE          	movff	tablat,postinc0
   121  006F58  50E5               	movf	postdec1,w,c
   122  006F5A  50E1               	movf	fsr1l,w,c
   123  006F5C  E1FA               	bnz	copy_data0
   124  006F5E                     end_of_initialization:
   125                           	opt callstack 0
   126  006F5E                     __end_of__initialization:
   127                           	opt callstack 0
   128  006F5E  0100               	movlb	0
   129  006F60  EFC7  F037         	goto	_main	;jump to C main() function
   130                           
   131                           	psect	dataCOMRAM
   132  00006C                     __pdataCOMRAM:
   133                           	opt callstack 0
   134  00006C                     main@F2438:
   135                           	opt callstack 0
   136  00006C                     	ds	7
   137                           
   138                           	psect	cstackCOMRAM
   139  000001                     __pcstackCOMRAM:
   140                           	opt callstack 0
   141  000001                     ?___aldiv:
   142                           	opt callstack 0
   143  000001                     ?___xxtofl:
   144                           	opt callstack 0
   145  000001                     UARTReadString@Output:
   146                           	opt callstack 0
   147  000001                     pulseDelay@delaySteps:
   148                           	opt callstack 0
   149  000001                     ___aldiv@dividend:
   150                           	opt callstack 0
   151  000001                     ___xxtofl@val:
   152                           	opt callstack 0
   153                           
   154                           ; 4 bytes @ 0x0
   155  000001                     	ds	2
   156  000003                     UARTReadString@length:
   157                           	opt callstack 0
   158                           
   159                           ; 1 bytes @ 0x2
   160  000003                     	ds	1
   161  000004                     UARTReadString@i:
   162                           	opt callstack 0
   163                           
   164                           ; 1 bytes @ 0x3
   165  000004                     	ds	1
   166  000005                     ??___xxtofl:
   167  000005                     ___aldiv@divisor:
   168                           	opt callstack 0
   169                           
   170                           ; 4 bytes @ 0x4
   171  000005                     	ds	4
   172  000009                     ___aldiv@counter:
   173                           	opt callstack 0
   174  000009                     ___xxtofl@sign:
   175                           	opt callstack 0
   176                           
   177                           ; 1 bytes @ 0x8
   178  000009                     	ds	1
   179  00000A                     ___aldiv@sign:
   180                           	opt callstack 0
   181  00000A                     ___xxtofl@exp:
   182                           	opt callstack 0
   183                           
   184                           ; 1 bytes @ 0x9
   185  00000A                     	ds	1
   186  00000B                     ___aldiv@quotient:
   187                           	opt callstack 0
   188  00000B                     ___xxtofl@arg:
   189                           	opt callstack 0
   190                           
   191                           ; 4 bytes @ 0xA
   192  00000B                     	ds	4
   193  00000F                     ?___fldiv:
   194                           	opt callstack 0
   195  00000F                     UARTInitialise@baudrate:
   196                           	opt callstack 0
   197  00000F                     ___fldiv@b:
   198                           	opt callstack 0
   199                           
   200                           ; 4 bytes @ 0xE
   201  00000F                     	ds	4
   202  000013                     ??_UARTInitialise:
   203  000013                     ___fldiv@a:
   204                           	opt callstack 0
   205                           
   206                           ; 4 bytes @ 0x12
   207  000013                     	ds	4
   208  000017                     ??___fldiv:
   209                           
   210                           ; 1 bytes @ 0x16
   211  000017                     	ds	4
   212  00001B                     UARTInitialise@x:
   213                           	opt callstack 0
   214  00001B                     ___fldiv@rem:
   215                           	opt callstack 0
   216                           
   217                           ; 4 bytes @ 0x1A
   218  00001B                     	ds	2
   219  00001D                     
   220                           ; 1 bytes @ 0x1C
   221  00001D                     	ds	2
   222  00001F                     ___fldiv@sign:
   223                           	opt callstack 0
   224                           
   225                           ; 1 bytes @ 0x1E
   226  00001F                     	ds	1
   227  000020                     ___fldiv@new_exp:
   228                           	opt callstack 0
   229                           
   230                           ; 2 bytes @ 0x1F
   231  000020                     	ds	2
   232  000022                     ___fldiv@grs:
   233                           	opt callstack 0
   234                           
   235                           ; 4 bytes @ 0x21
   236  000022                     	ds	4
   237  000026                     ___fldiv@bexp:
   238                           	opt callstack 0
   239                           
   240                           ; 1 bytes @ 0x25
   241  000026                     	ds	1
   242  000027                     ___fldiv@aexp:
   243                           	opt callstack 0
   244                           
   245                           ; 1 bytes @ 0x26
   246  000027                     	ds	1
   247  000028                     ?___flmul:
   248                           	opt callstack 0
   249  000028                     ___flmul@b:
   250                           	opt callstack 0
   251                           
   252                           ; 4 bytes @ 0x27
   253  000028                     	ds	4
   254  00002C                     ___flmul@a:
   255                           	opt callstack 0
   256                           
   257                           ; 4 bytes @ 0x2B
   258  00002C                     	ds	4
   259  000030                     ??___flmul:
   260                           
   261                           ; 1 bytes @ 0x2F
   262  000030                     	ds	4
   263  000034                     ___flmul@sign:
   264                           	opt callstack 0
   265                           
   266                           ; 1 bytes @ 0x33
   267  000034                     	ds	1
   268  000035                     ___flmul@grs:
   269                           	opt callstack 0
   270                           
   271                           ; 4 bytes @ 0x34
   272  000035                     	ds	4
   273  000039                     ___flmul@aexp:
   274                           	opt callstack 0
   275                           
   276                           ; 1 bytes @ 0x38
   277  000039                     	ds	1
   278  00003A                     ___flmul@bexp:
   279                           	opt callstack 0
   280                           
   281                           ; 1 bytes @ 0x39
   282  00003A                     	ds	1
   283  00003B                     ___flmul@prod:
   284                           	opt callstack 0
   285                           
   286                           ; 4 bytes @ 0x3A
   287  00003B                     	ds	4
   288  00003F                     ___flmul@temp:
   289                           	opt callstack 0
   290                           
   291                           ; 2 bytes @ 0x3E
   292  00003F                     	ds	2
   293  000041                     ?___fladd:
   294                           	opt callstack 0
   295  000041                     ___fladd@b:
   296                           	opt callstack 0
   297                           
   298                           ; 4 bytes @ 0x40
   299  000041                     	ds	4
   300  000045                     ___fladd@a:
   301                           	opt callstack 0
   302                           
   303                           ; 4 bytes @ 0x44
   304  000045                     	ds	4
   305  000049                     ??___fladd:
   306                           
   307                           ; 1 bytes @ 0x48
   308  000049                     	ds	4
   309  00004D                     ___fladd@signs:
   310                           	opt callstack 0
   311                           
   312                           ; 1 bytes @ 0x4C
   313  00004D                     	ds	1
   314  00004E                     ___fladd@aexp:
   315                           	opt callstack 0
   316                           
   317                           ; 1 bytes @ 0x4D
   318  00004E                     	ds	1
   319  00004F                     ___fladd@bexp:
   320                           	opt callstack 0
   321                           
   322                           ; 1 bytes @ 0x4E
   323  00004F                     	ds	1
   324  000050                     ___fladd@grs:
   325                           	opt callstack 0
   326                           
   327                           ; 1 bytes @ 0x4F
   328  000050                     	ds	1
   329  000051                     ?___fltol:
   330                           	opt callstack 0
   331  000051                     ___fltol@f1:
   332                           	opt callstack 0
   333                           
   334                           ; 4 bytes @ 0x50
   335  000051                     	ds	4
   336  000055                     ??___fltol:
   337                           
   338                           ; 1 bytes @ 0x54
   339  000055                     	ds	4
   340  000059                     ___fltol@sign1:
   341                           	opt callstack 0
   342                           
   343                           ; 1 bytes @ 0x58
   344  000059                     	ds	1
   345  00005A                     ___fltol@exp1:
   346                           	opt callstack 0
   347                           
   348                           ; 1 bytes @ 0x59
   349  00005A                     	ds	1
   350  00005B                     servoRun@Output:
   351                           	opt callstack 0
   352                           
   353                           ; 2 bytes @ 0x5A
   354  00005B                     	ds	2
   355  00005D                     ??_servoRun:
   356                           
   357                           ; 1 bytes @ 0x5C
   358  00005D                     	ds	3
   359  000060                     servoRun@delayCycles:
   360                           	opt callstack 0
   361                           
   362                           ; 2 bytes @ 0x5F
   363  000060                     	ds	2
   364  000062                     servoRun@fianlDelayCycles:
   365                           	opt callstack 0
   366                           
   367                           ; 2 bytes @ 0x61
   368  000062                     	ds	2
   369  000064                     servoRun@servoNumber:
   370                           	opt callstack 0
   371                           
   372                           ; 1 bytes @ 0x63
   373  000064                     	ds	1
   374  000065                     main@Output:
   375                           	opt callstack 0
   376                           
   377                           ; 7 bytes @ 0x64
   378  000065                     	ds	7
   379                           
   380 ;;
   381 ;;Main: autosize = 0, tempsize = 0, incstack = 0, save=0
   382 ;;
   383 ;; *************** function _main *****************
   384 ;; Defined at:
   385 ;;		line 102 in file "BluetoothReceiveServoPWM.c"
   386 ;; Parameters:    Size  Location     Type
   387 ;;		None
   388 ;; Auto vars:     Size  Location     Type
   389 ;;  Output          7  100[COMRAM] unsigned char [7]
   390 ;; Return value:  Size  Location     Type
   391 ;;                  1    wreg      void 
   392 ;; Registers used:
   393 ;;		wreg, fsr1l, fsr1h, fsr2l, fsr2h, status,2, status,0, prodl, prodh, cstack
   394 ;; Tracked objects:
   395 ;;		On entry : 0/0
   396 ;;		On exit  : 0/0
   397 ;;		Unchanged: 0/0
   398 ;; Data sizes:     COMRAM   BANK0   BANK1   BANK2   BANK3   BANK4   BANK5
   399 ;;      Params:         0       0       0       0       0       0       0
   400 ;;      Locals:         7       0       0       0       0       0       0
   401 ;;      Temps:          0       0       0       0       0       0       0
   402 ;;      Totals:         7       0       0       0       0       0       0
   403 ;;Total ram usage:        7 bytes
   404 ;; Hardware stack levels required when called:    3
   405 ;; This function calls:
   406 ;;		_UARTReadString
   407 ;;		_initialise
   408 ;;		_servoRun
   409 ;; This function is called by:
   410 ;;		Startup code after reset
   411 ;; This function uses a non-reentrant model
   412 ;;
   413                           
   414                           	psect	text0
   415  006F8E                     __ptext0:
   416                           	opt callstack 0
   417  006F8E                     _main:
   418                           	opt callstack 28
   419                           
   420                           ;BluetoothReceiveServoPWM.c: 103: initialise();
   421                           
   422                           ;incstack = 0
   423  006F8E  ECB2  F037         	call	_initialise	;wreg free
   424                           
   425                           ;BluetoothReceiveServoPWM.c: 114: unsigned char Output[7] = {90,90,0,90,90,10, 90};
   426  006F92  EE20  F06C         	lfsr	2,main@F2438
   427  006F96  EE10  F065         	lfsr	1,main@Output
   428  006F9A  0E06               	movlw	6
   429  006F9C                     u2351:
   430  006F9C  CFDB FFE3          	movff	plusw2,plusw1
   431  006FA0  06E8               	decf	wreg,f,c
   432  006FA2  E2FC               	bc	u2351
   433  006FA4                     l2203:
   434                           
   435                           ;BluetoothReceiveServoPWM.c: 116: servoRun(Output);
   436  006FA4  0E65               	movlw	low main@Output
   437  006FA6  6E5B               	movwf	servoRun@Output,c
   438  006FA8  0E00               	movlw	high main@Output
   439  006FAA  6E5C               	movwf	servoRun@Output+1,c
   440  006FAC  ECCA  F039         	call	_servoRun	;wreg free
   441                           
   442                           ;BluetoothReceiveServoPWM.c: 117: if (RCIF == 1){
   443  006FB0  AA9E               	btfss	3998,5,c	;volatile
   444  006FB2  D7F8               	goto	l2203
   445                           
   446                           ;BluetoothReceiveServoPWM.c: 118: UARTReadString(Output, 6);
   447  006FB4  0E65               	movlw	low main@Output
   448  006FB6  6E01               	movwf	UARTReadString@Output,c
   449  006FB8  0E00               	movlw	high main@Output
   450  006FBA  6E02               	movwf	UARTReadString@Output+1,c
   451  006FBC  0E06               	movlw	6
   452  006FBE  6E03               	movwf	UARTReadString@length,c
   453  006FC0  EC8D  F037         	call	_UARTReadString	;wreg free
   454  006FC4  D7EF               	goto	l2203
   455  006FC6                     __end_of_main:
   456                           	opt callstack 0
   457                           
   458 ;; *************** function _servoRun *****************
   459 ;; Defined at:
   460 ;;		line 89 in file "BluetoothReceiveServoPWM.c"
   461 ;; Parameters:    Size  Location     Type
   462 ;;  Output          2   90[COMRAM] PTR unsigned char 
   463 ;;		 -> main@Output(7), 
   464 ;; Auto vars:     Size  Location     Type
   465 ;;  fianlDelayCy    2   97[COMRAM] unsigned int 
   466 ;;  delayCycles     2   95[COMRAM] unsigned int 
   467 ;;  servoNumber     1   99[COMRAM] unsigned char 
   468 ;; Return value:  Size  Location     Type
   469 ;;                  1    wreg      void 
   470 ;; Registers used:
   471 ;;		wreg, fsr2l, fsr2h, status,2, status,0, prodl, prodh, cstack
   472 ;; Tracked objects:
   473 ;;		On entry : 0/0
   474 ;;		On exit  : 0/0
   475 ;;		Unchanged: 0/0
   476 ;; Data sizes:     COMRAM   BANK0   BANK1   BANK2   BANK3   BANK4   BANK5
   477 ;;      Params:         2       0       0       0       0       0       0
   478 ;;      Locals:         5       0       0       0       0       0       0
   479 ;;      Temps:          3       0       0       0       0       0       0
   480 ;;      Totals:        10       0       0       0       0       0       0
   481 ;;Total ram usage:       10 bytes
   482 ;; Hardware stack levels used:    1
   483 ;; Hardware stack levels required when called:    1
   484 ;; This function calls:
   485 ;;		___fladd
   486 ;;		___fldiv
   487 ;;		___flmul
   488 ;;		___fltol
   489 ;;		___xxtofl
   490 ;;		_pulseDelay
   491 ;; This function is called by:
   492 ;;		_main
   493 ;; This function uses a non-reentrant model
   494 ;;
   495                           
   496                           	psect	text1
   497  007394                     __ptext1:
   498                           	opt callstack 0
   499  007394                     _servoRun:
   500                           	opt callstack 29
   501                           
   502                           ;incstack = 0
   503  007394  0E00               	movlw	0
   504  007396  6E63               	movwf	servoRun@fianlDelayCycles+1,c
   505  007398  0E00               	movlw	0
   506  00739A  6E62               	movwf	servoRun@fianlDelayCycles,c
   507                           
   508                           ;BluetoothReceiveServoPWM.c: 91: unsigned char servoNumber;;BluetoothReceiveServoPWM.c: 
      +                          92: for(servoNumber = 0; servoNumber < 6; servoNumber++){
   509  00739C  0E00               	movlw	0
   510  00739E  6E64               	movwf	servoRun@servoNumber,c
   511  0073A0                     l2179:
   512  0073A0  0E05               	movlw	5
   513  0073A2  6464               	cpfsgt	servoRun@servoNumber,c
   514  0073A4  D001               	goto	l2183
   515  0073A6  D08A               	goto	l2195
   516  0073A8                     l2183:
   517                           
   518                           ;BluetoothReceiveServoPWM.c: 93: delayCycles = (unsigned int)(((Output[servoNumber]/180.
      +                          0)*3900)+1000);
   519  0073A8  0E00               	movlw	0
   520  0073AA  6E45               	movwf	___fladd@a,c
   521  0073AC  0E00               	movlw	0
   522  0073AE  6E46               	movwf	___fladd@a+1,c
   523  0073B0  0E7A               	movlw	122
   524  0073B2  6E47               	movwf	___fladd@a+2,c
   525  0073B4  0E44               	movlw	68
   526  0073B6  6E48               	movwf	___fladd@a+3,c
   527  0073B8  0E00               	movlw	0
   528  0073BA  6E2C               	movwf	___flmul@a,c
   529  0073BC  0EC0               	movlw	192
   530  0073BE  6E2D               	movwf	___flmul@a+1,c
   531  0073C0  0E73               	movlw	115
   532  0073C2  6E2E               	movwf	___flmul@a+2,c
   533  0073C4  0E45               	movlw	69
   534  0073C6  6E2F               	movwf	___flmul@a+3,c
   535  0073C8  0E00               	movlw	0
   536  0073CA  6E13               	movwf	___fldiv@a,c
   537  0073CC  0E00               	movlw	0
   538  0073CE  6E14               	movwf	___fldiv@a+1,c
   539  0073D0  0E34               	movlw	52
   540  0073D2  6E15               	movwf	___fldiv@a+2,c
   541  0073D4  0E43               	movlw	67
   542  0073D6  6E16               	movwf	___fldiv@a+3,c
   543  0073D8  5064               	movf	servoRun@servoNumber,w,c
   544  0073DA  245B               	addwf	servoRun@Output,w,c
   545  0073DC  6ED9               	movwf	fsr2l,c
   546  0073DE  0E00               	movlw	0
   547  0073E0  205C               	addwfc	servoRun@Output+1,w,c
   548  0073E2  6EDA               	movwf	fsr2h,c
   549  0073E4  50DF               	movf	indf2,w,c
   550  0073E6  6E5D               	movwf	??_servoRun& (0+255),c
   551  0073E8  505D               	movf	??_servoRun,w,c
   552  0073EA  6E01               	movwf	___xxtofl@val,c
   553  0073EC  6A02               	clrf	___xxtofl@val+1,c
   554  0073EE  6A03               	clrf	___xxtofl@val+2,c
   555  0073F0  6A04               	clrf	___xxtofl@val+3,c
   556  0073F2  0E00               	movlw	0
   557  0073F4  EC2A  F039         	call	___xxtofl
   558  0073F8  C001  F00F         	movff	?___xxtofl,___fldiv@b
   559  0073FC  C002  F010         	movff	?___xxtofl+1,___fldiv@b+1
   560  007400  C003  F011         	movff	?___xxtofl+2,___fldiv@b+2
   561  007404  C004  F012         	movff	?___xxtofl+3,___fldiv@b+3
   562  007408  EC6D  F03A         	call	___fldiv	;wreg free
   563  00740C  C00F  F028         	movff	?___fldiv,___flmul@b
   564  007410  C010  F029         	movff	?___fldiv+1,___flmul@b+1
   565  007414  C011  F02A         	movff	?___fldiv+2,___flmul@b+2
   566  007418  C012  F02B         	movff	?___fldiv+3,___flmul@b+3
   567  00741C  EC37  F03D         	call	___flmul	;wreg free
   568  007420  C028  F041         	movff	?___flmul,___fladd@b
   569  007424  C029  F042         	movff	?___flmul+1,___fladd@b+1
   570  007428  C02A  F043         	movff	?___flmul+2,___fladd@b+2
   571  00742C  C02B  F044         	movff	?___flmul+3,___fladd@b+3
   572  007430  ECB1  F03B         	call	___fladd	;wreg free
   573  007434  C041  F051         	movff	?___fladd,___fltol@f1
   574  007438  C042  F052         	movff	?___fladd+1,___fltol@f1+1
   575  00743C  C043  F053         	movff	?___fladd+2,___fltol@f1+2
   576  007440  C044  F054         	movff	?___fladd+3,___fltol@f1+3
   577  007444  ECE3  F037         	call	___fltol	;wreg free
   578  007448  C051  F060         	movff	?___fltol,servoRun@delayCycles
   579  00744C  C052  F061         	movff	?___fltol+1,servoRun@delayCycles+1
   580                           
   581                           ;BluetoothReceiveServoPWM.c: 94: fianlDelayCycles += (delayCycles+(Output[servoNumber]*3
      +                          ));
   582  007450  5064               	movf	servoRun@servoNumber,w,c
   583  007452  245B               	addwf	servoRun@Output,w,c
   584  007454  6ED9               	movwf	fsr2l,c
   585  007456  0E00               	movlw	0
   586  007458  205C               	addwfc	servoRun@Output+1,w,c
   587  00745A  6EDA               	movwf	fsr2h,c
   588  00745C  50DF               	movf	indf2,w,c
   589  00745E  6E5D               	movwf	??_servoRun& (0+255),c
   590  007460  505D               	movf	??_servoRun,w,c
   591  007462  0D03               	mullw	3
   592  007464  CFF3 F05E          	movff	prodl,??_servoRun+1
   593  007468  CFF4 F05F          	movff	prodh,??_servoRun+2
   594  00746C  5060               	movf	servoRun@delayCycles,w,c
   595  00746E  265E               	addwf	??_servoRun+1,f,c
   596  007470  5061               	movf	servoRun@delayCycles+1,w,c
   597  007472  225F               	addwfc	??_servoRun+2,f,c
   598  007474  505E               	movf	??_servoRun+1,w,c
   599  007476  2662               	addwf	servoRun@fianlDelayCycles,f,c
   600  007478  505F               	movf	??_servoRun+2,w,c
   601  00747A  2263               	addwfc	servoRun@fianlDelayCycles+1,f,c
   602                           
   603                           ;BluetoothReceiveServoPWM.c: 95: PORTB = 1<<servoNumber;
   604  00747C  C064  F05D         	movff	servoRun@servoNumber,??_servoRun
   605  007480  0E01               	movlw	1
   606  007482  6E5E               	movwf	(??_servoRun+1)& (0+255),c
   607  007484  2A5D               	incf	??_servoRun,f,c
   608  007486  D002               	goto	u2334
   609  007488                     u2335:
   610  007488  90D8               	bcf	status,0,c
   611  00748A  365E               	rlcf	??_servoRun+1,f,c
   612  00748C                     u2334:
   613  00748C  2E5D               	decfsz	??_servoRun,f,c
   614  00748E  D7FC               	goto	u2335
   615  007490  505E               	movf	??_servoRun+1,w,c
   616  007492  6E81               	movwf	3969,c	;volatile
   617                           
   618                           ;BluetoothReceiveServoPWM.c: 96: pulseDelay(delayCycles);
   619  007494  C060  F001         	movff	servoRun@delayCycles,pulseDelay@delaySteps
   620  007498  C061  F002         	movff	servoRun@delayCycles+1,pulseDelay@delaySteps+1
   621  00749C  EC81  F037         	call	_pulseDelay	;wreg free
   622                           
   623                           ;BluetoothReceiveServoPWM.c: 97: PORTB = 0<<servoNumber;
   624  0074A0  C064  F05D         	movff	servoRun@servoNumber,??_servoRun
   625  0074A4  0E00               	movlw	0
   626  0074A6  6E5E               	movwf	(??_servoRun+1)& (0+255),c
   627  0074A8  2A5D               	incf	??_servoRun,f,c
   628  0074AA  D002               	goto	u2344
   629  0074AC                     u2345:
   630  0074AC  90D8               	bcf	status,0,c
   631  0074AE  365E               	rlcf	??_servoRun+1,f,c
   632  0074B0                     u2344:
   633  0074B0  2E5D               	decfsz	??_servoRun,f,c
   634  0074B2  D7FC               	goto	u2345
   635  0074B4  505E               	movf	??_servoRun+1,w,c
   636  0074B6  6E81               	movwf	3969,c	;volatile
   637  0074B8  2A64               	incf	servoRun@servoNumber,f,c
   638  0074BA  D772               	goto	l2179
   639  0074BC                     l2195:
   640                           
   641                           ;BluetoothReceiveServoPWM.c: 98: };BluetoothReceiveServoPWM.c: 99: fianlDelayCycles = (u
      +                          nsigned int)((40000-14500) - fianlDelayCycles);
   642  0074BC  5062               	movf	servoRun@fianlDelayCycles,w,c
   643  0074BE  089C               	sublw	156
   644  0074C0  6E62               	movwf	servoRun@fianlDelayCycles,c
   645  0074C2  5063               	movf	servoRun@fianlDelayCycles+1,w,c
   646  0074C4  A0D8               	btfss	status,0,c
   647  0074C6  2AE8               	incf	wreg,f,c
   648  0074C8  0863               	sublw	99
   649  0074CA  6E63               	movwf	servoRun@fianlDelayCycles+1,c
   650                           
   651                           ;BluetoothReceiveServoPWM.c: 100: pulseDelay(fianlDelayCycles);
   652  0074CC  C062  F001         	movff	servoRun@fianlDelayCycles,pulseDelay@delaySteps
   653  0074D0  C063  F002         	movff	servoRun@fianlDelayCycles+1,pulseDelay@delaySteps+1
   654  0074D4  EC81  F037         	call	_pulseDelay	;wreg free
   655  0074D8  0012               	return		;funcret
   656  0074DA                     __end_of_servoRun:
   657                           	opt callstack 0
   658                           
   659 ;; *************** function _pulseDelay *****************
   660 ;; Defined at:
   661 ;;		line 80 in file "BluetoothReceiveServoPWM.c"
   662 ;; Parameters:    Size  Location     Type
   663 ;;  delaySteps      2    0[COMRAM] unsigned int 
   664 ;; Auto vars:     Size  Location     Type
   665 ;;		None
   666 ;; Return value:  Size  Location     Type
   667 ;;                  1    wreg      void 
   668 ;; Registers used:
   669 ;;		wreg, status,2, status,0
   670 ;; Tracked objects:
   671 ;;		On entry : 0/0
   672 ;;		On exit  : 0/0
   673 ;;		Unchanged: 0/0
   674 ;; Data sizes:     COMRAM   BANK0   BANK1   BANK2   BANK3   BANK4   BANK5
   675 ;;      Params:         2       0       0       0       0       0       0
   676 ;;      Locals:         0       0       0       0       0       0       0
   677 ;;      Temps:          0       0       0       0       0       0       0
   678 ;;      Totals:         2       0       0       0       0       0       0
   679 ;;Total ram usage:        2 bytes
   680 ;; Hardware stack levels used:    1
   681 ;; This function calls:
   682 ;;		Nothing
   683 ;; This function is called by:
   684 ;;		_servoRun
   685 ;; This function uses a non-reentrant model
   686 ;;
   687                           
   688                           	psect	text2
   689  006F02                     __ptext2:
   690                           	opt callstack 0
   691  006F02                     _pulseDelay:
   692                           	opt callstack 29
   693                           
   694                           ;BluetoothReceiveServoPWM.c: 81: TMR0ON = 1;
   695                           
   696                           ;incstack = 0
   697  006F02  8ED5               	bsf	4053,7,c	;volatile
   698                           
   699                           ;BluetoothReceiveServoPWM.c: 82: delaySteps = (unsigned int)(65535 - delaySteps);
   700  006F04  1E01               	comf	pulseDelay@delaySteps,f,c
   701  006F06  1E02               	comf	pulseDelay@delaySteps+1,f,c
   702                           
   703                           ;BluetoothReceiveServoPWM.c: 83: TMR0H = (delaySteps & 0b1111111100000000)>>8;
   704  006F08  5002               	movf	pulseDelay@delaySteps+1,w,c
   705  006F0A  6ED7               	movwf	4055,c	;volatile
   706                           
   707                           ;BluetoothReceiveServoPWM.c: 84: TMR0L = (delaySteps & 0b0000000011111111);
   708  006F0C  C001  FFD6         	movff	pulseDelay@delaySteps,4054	;volatile
   709  006F10                     l74:
   710  006F10  A4F2               	btfss	4082,2,c	;volatile
   711  006F12  D7FE               	goto	l74
   712                           
   713                           ;BluetoothReceiveServoPWM.c: 86: TMR0IF = 0;
   714  006F14  94F2               	bcf	4082,2,c	;volatile
   715                           
   716                           ;BluetoothReceiveServoPWM.c: 87: TMR0ON = 0;
   717  006F16  9ED5               	bcf	4053,7,c	;volatile
   718  006F18  0012               	return		;funcret
   719  006F1A                     __end_of_pulseDelay:
   720                           	opt callstack 0
   721                           
   722 ;; *************** function ___xxtofl *****************
   723 ;; Defined at:
   724 ;;		line 10 in file "C:\Program Files (x86)\Microchip\xc8\v2.05\pic\sources\c90\common\xxtofl.c"
   725 ;; Parameters:    Size  Location     Type
   726 ;;  sign            1    wreg     unsigned char 
   727 ;;  val             4    0[COMRAM] long 
   728 ;; Auto vars:     Size  Location     Type
   729 ;;  sign            1    8[COMRAM] unsigned char 
   730 ;;  arg             4   10[COMRAM] unsigned long 
   731 ;;  exp             1    9[COMRAM] unsigned char 
   732 ;; Return value:  Size  Location     Type
   733 ;;                  4    0[COMRAM] unsigned char 
   734 ;; Registers used:
   735 ;;		wreg, status,2, status,0
   736 ;; Tracked objects:
   737 ;;		On entry : 0/0
   738 ;;		On exit  : 0/0
   739 ;;		Unchanged: 0/0
   740 ;; Data sizes:     COMRAM   BANK0   BANK1   BANK2   BANK3   BANK4   BANK5
   741 ;;      Params:         4       0       0       0       0       0       0
   742 ;;      Locals:         6       0       0       0       0       0       0
   743 ;;      Temps:          4       0       0       0       0       0       0
   744 ;;      Totals:        14       0       0       0       0       0       0
   745 ;;Total ram usage:       14 bytes
   746 ;; Hardware stack levels used:    1
   747 ;; This function calls:
   748 ;;		Nothing
   749 ;; This function is called by:
   750 ;;		_servoRun
   751 ;; This function uses a non-reentrant model
   752 ;;
   753                           
   754                           	psect	text3
   755  007254                     __ptext3:
   756                           	opt callstack 0
   757  007254                     ___xxtofl:
   758                           	opt callstack 29
   759                           
   760                           ;incstack = 0
   761                           ;___xxtofl@sign stored from wreg
   762  007254  6E09               	movwf	___xxtofl@sign,c
   763  007256  5009               	movf	___xxtofl@sign,w,c
   764  007258  A4D8               	btfss	status,2,c
   765  00725A  AE04               	btfss	___xxtofl@val+3,7,c
   766  00725C  D01A               	goto	l739
   767  00725E  C001  F005         	movff	___xxtofl@val,??___xxtofl
   768  007262  C002  F006         	movff	___xxtofl@val+1,??___xxtofl+1
   769  007266  C003  F007         	movff	___xxtofl@val+2,??___xxtofl+2
   770  00726A  C004  F008         	movff	___xxtofl@val+3,??___xxtofl+3
   771  00726E  1E05               	comf	??___xxtofl,f,c
   772  007270  1E06               	comf	??___xxtofl+1,f,c
   773  007272  1E07               	comf	??___xxtofl+2,f,c
   774  007274  1E08               	comf	??___xxtofl+3,f,c
   775  007276  2A05               	incf	??___xxtofl,f,c
   776  007278  0E00               	movlw	0
   777  00727A  2206               	addwfc	??___xxtofl+1,f,c
   778  00727C  2207               	addwfc	??___xxtofl+2,f,c
   779  00727E  2208               	addwfc	??___xxtofl+3,f,c
   780  007280  C005  F00B         	movff	??___xxtofl,___xxtofl@arg
   781  007284  C006  F00C         	movff	??___xxtofl+1,___xxtofl@arg+1
   782  007288  C007  F00D         	movff	??___xxtofl+2,___xxtofl@arg+2
   783  00728C  C008  F00E         	movff	??___xxtofl+3,___xxtofl@arg+3
   784  007290  D008               	goto	l2113
   785  007292                     l739:
   786  007292  C001  F00B         	movff	___xxtofl@val,___xxtofl@arg
   787  007296  C002  F00C         	movff	___xxtofl@val+1,___xxtofl@arg+1
   788  00729A  C003  F00D         	movff	___xxtofl@val+2,___xxtofl@arg+2
   789  00729E  C004  F00E         	movff	___xxtofl@val+3,___xxtofl@arg+3
   790  0072A2                     l2113:
   791  0072A2  5001               	movf	___xxtofl@val,w,c
   792  0072A4  1002               	iorwf	___xxtofl@val+1,w,c
   793  0072A6  1003               	iorwf	___xxtofl@val+2,w,c
   794  0072A8  1004               	iorwf	___xxtofl@val+3,w,c
   795  0072AA  A4D8               	btfss	status,2,c
   796  0072AC  D009               	goto	l2119
   797  0072AE  0E00               	movlw	0
   798  0072B0  6E01               	movwf	?___xxtofl,c
   799  0072B2  0E00               	movlw	0
   800  0072B4  6E02               	movwf	?___xxtofl+1,c
   801  0072B6  0E00               	movlw	0
   802  0072B8  6E03               	movwf	?___xxtofl+2,c
   803  0072BA  0E00               	movlw	0
   804  0072BC  6E04               	movwf	?___xxtofl+3,c
   805  0072BE  0012               	return	
   806  0072C0                     l2119:
   807  0072C0  0E96               	movlw	150
   808  0072C2  6E0A               	movwf	___xxtofl@exp,c
   809  0072C4  D006               	goto	l2123
   810  0072C6                     l2121:
   811  0072C6  2A0A               	incf	___xxtofl@exp,f,c
   812  0072C8  90D8               	bcf	status,0,c
   813  0072CA  320E               	rrcf	___xxtofl@arg+3,f,c
   814  0072CC  320D               	rrcf	___xxtofl@arg+2,f,c
   815  0072CE  320C               	rrcf	___xxtofl@arg+1,f,c
   816  0072D0  320B               	rrcf	___xxtofl@arg,f,c
   817  0072D2                     l2123:
   818  0072D2  0E00               	movlw	0
   819  0072D4  140B               	andwf	___xxtofl@arg,w,c
   820  0072D6  6E05               	movwf	??___xxtofl& (0+255),c
   821  0072D8  0E00               	movlw	0
   822  0072DA  140C               	andwf	___xxtofl@arg+1,w,c
   823  0072DC  6E06               	movwf	(??___xxtofl+1)& (0+255),c
   824  0072DE  0E00               	movlw	0
   825  0072E0  140D               	andwf	___xxtofl@arg+2,w,c
   826  0072E2  6E07               	movwf	(??___xxtofl+2)& (0+255),c
   827  0072E4  0EFE               	movlw	254
   828  0072E6  140E               	andwf	___xxtofl@arg+3,w,c
   829  0072E8  6E08               	movwf	(??___xxtofl+3)& (0+255),c
   830  0072EA  5005               	movf	??___xxtofl,w,c
   831  0072EC  1006               	iorwf	??___xxtofl+1,w,c
   832  0072EE  1007               	iorwf	??___xxtofl+2,w,c
   833  0072F0  1008               	iorwf	??___xxtofl+3,w,c
   834  0072F2  B4D8               	btfsc	status,2,c
   835  0072F4  D00D               	goto	l746
   836  0072F6  D7E7               	goto	l2121
   837  0072F8                     l2125:
   838  0072F8  2A0A               	incf	___xxtofl@exp,f,c
   839  0072FA  0E01               	movlw	1
   840  0072FC  260B               	addwf	___xxtofl@arg,f,c
   841  0072FE  0E00               	movlw	0
   842  007300  220C               	addwfc	___xxtofl@arg+1,f,c
   843  007302  220D               	addwfc	___xxtofl@arg+2,f,c
   844  007304  220E               	addwfc	___xxtofl@arg+3,f,c
   845  007306  90D8               	bcf	status,0,c
   846  007308  320E               	rrcf	___xxtofl@arg+3,f,c
   847  00730A  320D               	rrcf	___xxtofl@arg+2,f,c
   848  00730C  320C               	rrcf	___xxtofl@arg+1,f,c
   849  00730E  320B               	rrcf	___xxtofl@arg,f,c
   850  007310                     l746:
   851  007310  0E00               	movlw	0
   852  007312  140B               	andwf	___xxtofl@arg,w,c
   853  007314  6E05               	movwf	??___xxtofl& (0+255),c
   854  007316  0E00               	movlw	0
   855  007318  140C               	andwf	___xxtofl@arg+1,w,c
   856  00731A  6E06               	movwf	(??___xxtofl+1)& (0+255),c
   857  00731C  0E00               	movlw	0
   858  00731E  140D               	andwf	___xxtofl@arg+2,w,c
   859  007320  6E07               	movwf	(??___xxtofl+2)& (0+255),c
   860  007322  0EFF               	movlw	255
   861  007324  140E               	andwf	___xxtofl@arg+3,w,c
   862  007326  6E08               	movwf	(??___xxtofl+3)& (0+255),c
   863  007328  5005               	movf	??___xxtofl,w,c
   864  00732A  1006               	iorwf	??___xxtofl+1,w,c
   865  00732C  1007               	iorwf	??___xxtofl+2,w,c
   866  00732E  1008               	iorwf	??___xxtofl+3,w,c
   867  007330  B4D8               	btfsc	status,2,c
   868  007332  D007               	goto	l2133
   869  007334  D7E1               	goto	l2125
   870  007336                     l2131:
   871  007336  060A               	decf	___xxtofl@exp,f,c
   872  007338  90D8               	bcf	status,0,c
   873  00733A  360B               	rlcf	___xxtofl@arg,f,c
   874  00733C  360C               	rlcf	___xxtofl@arg+1,f,c
   875  00733E  360D               	rlcf	___xxtofl@arg+2,f,c
   876  007340  360E               	rlcf	___xxtofl@arg+3,f,c
   877  007342                     l2133:
   878  007342  BE0D               	btfsc	___xxtofl@arg+2,7,c
   879  007344  D003               	goto	u2270
   880  007346  0E02               	movlw	2
   881  007348  600A               	cpfslt	___xxtofl@exp,c
   882  00734A  D7F5               	goto	l2131
   883  00734C                     u2270:
   884  00734C  A00A               	btfss	___xxtofl@exp,0,c
   885  00734E  9E0D               	bcf	___xxtofl@arg+2,7,c
   886  007350  90D8               	bcf	status,0,c
   887  007352  320A               	rrcf	___xxtofl@exp,f,c
   888  007354  C00A  F005         	movff	___xxtofl@exp,??___xxtofl
   889  007358  6A06               	clrf	(??___xxtofl+1)& (0+255),c
   890  00735A  6A07               	clrf	(??___xxtofl+2)& (0+255),c
   891  00735C  6A08               	clrf	(??___xxtofl+3)& (0+255),c
   892  00735E  C005  F008         	movff	??___xxtofl,??___xxtofl+3
   893  007362  6A07               	clrf	??___xxtofl+2,c
   894  007364  6A06               	clrf	??___xxtofl+1,c
   895  007366  6A05               	clrf	??___xxtofl,c
   896  007368  5005               	movf	??___xxtofl,w,c
   897  00736A  120B               	iorwf	___xxtofl@arg,f,c
   898  00736C  5006               	movf	??___xxtofl+1,w,c
   899  00736E  120C               	iorwf	___xxtofl@arg+1,f,c
   900  007370  5007               	movf	??___xxtofl+2,w,c
   901  007372  120D               	iorwf	___xxtofl@arg+2,f,c
   902  007374  5008               	movf	??___xxtofl+3,w,c
   903  007376  120E               	iorwf	___xxtofl@arg+3,f,c
   904  007378  5009               	movf	___xxtofl@sign,w,c
   905  00737A  A4D8               	btfss	status,2,c
   906  00737C  AE04               	btfss	___xxtofl@val+3,7,c
   907  00737E  D001               	goto	l2149
   908  007380  8E0E               	bsf	___xxtofl@arg+3,7,c
   909  007382                     l2149:
   910  007382  C00B  F001         	movff	___xxtofl@arg,?___xxtofl
   911  007386  C00C  F002         	movff	___xxtofl@arg+1,?___xxtofl+1
   912  00738A  C00D  F003         	movff	___xxtofl@arg+2,?___xxtofl+2
   913  00738E  C00E  F004         	movff	___xxtofl@arg+3,?___xxtofl+3
   914  007392  0012               	return		;funcret
   915  007394                     __end_of___xxtofl:
   916                           	opt callstack 0
   917                           
   918 ;; *************** function ___fltol *****************
   919 ;; Defined at:
   920 ;;		line 43 in file "C:\Program Files (x86)\Microchip\xc8\v2.05\pic\sources\c90\common\fltol.c"
   921 ;; Parameters:    Size  Location     Type
   922 ;;  f1              4   80[COMRAM] unsigned char 
   923 ;; Auto vars:     Size  Location     Type
   924 ;;  exp1            1   89[COMRAM] unsigned char 
   925 ;;  sign1           1   88[COMRAM] unsigned char 
   926 ;; Return value:  Size  Location     Type
   927 ;;                  4   80[COMRAM] long 
   928 ;; Registers used:
   929 ;;		wreg, status,2, status,0
   930 ;; Tracked objects:
   931 ;;		On entry : 0/0
   932 ;;		On exit  : 0/0
   933 ;;		Unchanged: 0/0
   934 ;; Data sizes:     COMRAM   BANK0   BANK1   BANK2   BANK3   BANK4   BANK5
   935 ;;      Params:         4       0       0       0       0       0       0
   936 ;;      Locals:         2       0       0       0       0       0       0
   937 ;;      Temps:          4       0       0       0       0       0       0
   938 ;;      Totals:        10       0       0       0       0       0       0
   939 ;;Total ram usage:       10 bytes
   940 ;; Hardware stack levels used:    1
   941 ;; This function calls:
   942 ;;		Nothing
   943 ;; This function is called by:
   944 ;;		_servoRun
   945 ;; This function uses a non-reentrant model
   946 ;;
   947                           
   948                           	psect	text4
   949  006FC6                     __ptext4:
   950                           	opt callstack 0
   951  006FC6                     ___fltol:
   952                           	opt callstack 29
   953                           
   954                           ;incstack = 0
   955  006FC6  3453               	rlcf	___fltol@f1+2,w,c
   956  006FC8  3454               	rlcf	___fltol@f1+3,w,c
   957  006FCA  6E5A               	movwf	___fltol@exp1,c
   958  006FCC  505A               	movf	___fltol@exp1,w,c
   959  006FCE  A4D8               	btfss	status,2,c
   960  006FD0  D009               	goto	l2069
   961  006FD2                     u2140:
   962  006FD2  0E00               	movlw	0
   963  006FD4  6E51               	movwf	?___fltol,c
   964  006FD6  0E00               	movlw	0
   965  006FD8  6E52               	movwf	?___fltol+1,c
   966  006FDA  0E00               	movlw	0
   967  006FDC  6E53               	movwf	?___fltol+2,c
   968  006FDE  0E00               	movlw	0
   969  006FE0  6E54               	movwf	?___fltol+3,c
   970  006FE2  0012               	return	
   971  006FE4                     l2069:
   972  006FE4  C051  F055         	movff	___fltol@f1,??___fltol
   973  006FE8  C052  F056         	movff	___fltol@f1+1,??___fltol+1
   974  006FEC  C053  F057         	movff	___fltol@f1+2,??___fltol+2
   975  006FF0  C054  F058         	movff	___fltol@f1+3,??___fltol+3
   976  006FF4  0E20               	movlw	32
   977  006FF6  D005               	goto	u2150
   978  006FF8                     u2155:
   979  006FF8  90D8               	bcf	status,0,c
   980  006FFA  3258               	rrcf	??___fltol+3,f,c
   981  006FFC  3257               	rrcf	??___fltol+2,f,c
   982  006FFE  3256               	rrcf	??___fltol+1,f,c
   983  007000  3255               	rrcf	??___fltol,f,c
   984  007002                     u2150:
   985  007002  2EE8               	decfsz	wreg,f,c
   986  007004  D7F9               	goto	u2155
   987  007006  5055               	movf	??___fltol,w,c
   988  007008  6E59               	movwf	___fltol@sign1,c
   989  00700A  8E53               	bsf	___fltol@f1+2,7,c
   990  00700C  0EFF               	movlw	255
   991  00700E  1651               	andwf	___fltol@f1,f,c
   992  007010  0EFF               	movlw	255
   993  007012  1652               	andwf	___fltol@f1+1,f,c
   994  007014  0EFF               	movlw	255
   995  007016  1653               	andwf	___fltol@f1+2,f,c
   996  007018  0E00               	movlw	0
   997  00701A  1654               	andwf	___fltol@f1+3,f,c
   998  00701C  0E96               	movlw	150
   999  00701E  5E5A               	subwf	___fltol@exp1,f,c
  1000  007020  AE5A               	btfss	___fltol@exp1,7,c
  1001  007022  D00D               	goto	l2089
  1002  007024  505A               	movf	___fltol@exp1,w,c
  1003  007026  0A80               	xorlw	128
  1004  007028  0F97               	addlw	151
  1005  00702A  A0D8               	btfss	status,0,c
  1006  00702C  D7D2               	goto	u2140
  1007  00702E                     l2085:
  1008  00702E  90D8               	bcf	status,0,c
  1009  007030  3254               	rrcf	___fltol@f1+3,f,c
  1010  007032  3253               	rrcf	___fltol@f1+2,f,c
  1011  007034  3252               	rrcf	___fltol@f1+1,f,c
  1012  007036  3251               	rrcf	___fltol@f1,f,c
  1013  007038  3E5A               	incfsz	___fltol@exp1,f,c
  1014  00703A  D7F9               	goto	l2085
  1015  00703C  D00D               	goto	u2190
  1016  00703E                     l2089:
  1017  00703E  0E1F               	movlw	31
  1018  007040  645A               	cpfsgt	___fltol@exp1,c
  1019  007042  D007               	goto	l2097
  1020  007044  D7C6               	goto	u2140
  1021  007046                     l2095:
  1022  007046  90D8               	bcf	status,0,c
  1023  007048  3651               	rlcf	___fltol@f1,f,c
  1024  00704A  3652               	rlcf	___fltol@f1+1,f,c
  1025  00704C  3653               	rlcf	___fltol@f1+2,f,c
  1026  00704E  3654               	rlcf	___fltol@f1+3,f,c
  1027  007050  065A               	decf	___fltol@exp1,f,c
  1028  007052                     l2097:
  1029  007052  505A               	movf	___fltol@exp1,w,c
  1030  007054  A4D8               	btfss	status,2,c
  1031  007056  D7F7               	goto	l2095
  1032  007058                     u2190:
  1033  007058  5059               	movf	___fltol@sign1,w,c
  1034  00705A  B4D8               	btfsc	status,2,c
  1035  00705C  D008               	goto	l2103
  1036  00705E  1E54               	comf	___fltol@f1+3,f,c
  1037  007060  1E53               	comf	___fltol@f1+2,f,c
  1038  007062  1E52               	comf	___fltol@f1+1,f,c
  1039  007064  6C51               	negf	___fltol@f1,c
  1040  007066  0E00               	movlw	0
  1041  007068  2252               	addwfc	___fltol@f1+1,f,c
  1042  00706A  2253               	addwfc	___fltol@f1+2,f,c
  1043  00706C  2254               	addwfc	___fltol@f1+3,f,c
  1044  00706E                     l2103:
  1045  00706E  C051  F051         	movff	___fltol@f1,?___fltol
  1046  007072  C052  F052         	movff	___fltol@f1+1,?___fltol+1
  1047  007076  C053  F053         	movff	___fltol@f1+2,?___fltol+2
  1048  00707A  C054  F054         	movff	___fltol@f1+3,?___fltol+3
  1049  00707E  0012               	return		;funcret
  1050  007080                     __end_of___fltol:
  1051                           	opt callstack 0
  1052                           
  1053 ;; *************** function ___flmul *****************
  1054 ;; Defined at:
  1055 ;;		line 8 in file "C:\Program Files (x86)\Microchip\xc8\v2.05\pic\sources\c90\common\sprcmul.c"
  1056 ;; Parameters:    Size  Location     Type
  1057 ;;  b               4   39[COMRAM] long 
  1058 ;;  a               4   43[COMRAM] long 
  1059 ;; Auto vars:     Size  Location     Type
  1060 ;;  prod            4   58[COMRAM] struct .
  1061 ;;  grs             4   52[COMRAM] unsigned long 
  1062 ;;  temp            2   62[COMRAM] struct .
  1063 ;;  bexp            1   57[COMRAM] unsigned char 
  1064 ;;  aexp            1   56[COMRAM] unsigned char 
  1065 ;;  sign            1   51[COMRAM] unsigned char 
  1066 ;; Return value:  Size  Location     Type
  1067 ;;                  4   39[COMRAM] unsigned char 
  1068 ;; Registers used:
  1069 ;;		wreg, status,2, status,0, prodl, prodh
  1070 ;; Tracked objects:
  1071 ;;		On entry : 0/0
  1072 ;;		On exit  : 0/0
  1073 ;;		Unchanged: 0/0
  1074 ;; Data sizes:     COMRAM   BANK0   BANK1   BANK2   BANK3   BANK4   BANK5
  1075 ;;      Params:         8       0       0       0       0       0       0
  1076 ;;      Locals:        13       0       0       0       0       0       0
  1077 ;;      Temps:          4       0       0       0       0       0       0
  1078 ;;      Totals:        25       0       0       0       0       0       0
  1079 ;;Total ram usage:       25 bytes
  1080 ;; Hardware stack levels used:    1
  1081 ;; This function calls:
  1082 ;;		Nothing
  1083 ;; This function is called by:
  1084 ;;		_servoRun
  1085 ;; This function uses a non-reentrant model
  1086 ;;
  1087                           
  1088                           	psect	text5
  1089  007A6E                     __ptext5:
  1090                           	opt callstack 0
  1091  007A6E                     ___flmul:
  1092                           	opt callstack 29
  1093                           
  1094                           ;incstack = 0
  1095  007A6E  502B               	movf	___flmul@b+3,w,c
  1096  007A70  0B80               	andlw	128
  1097  007A72  6E34               	movwf	___flmul@sign,c
  1098  007A74  502B               	movf	___flmul@b+3,w,c
  1099  007A76  242B               	addwf	___flmul@b+3,w,c
  1100  007A78  6E3A               	movwf	___flmul@bexp,c
  1101  007A7A  BE2A               	btfsc	___flmul@b+2,7,c
  1102  007A7C  803A               	bsf	___flmul@bexp,0,c
  1103  007A7E  503A               	movf	___flmul@bexp,w,c
  1104  007A80  B4D8               	btfsc	status,2,c
  1105  007A82  D00D               	goto	l1947
  1106  007A84  283A               	incf	___flmul@bexp,w,c
  1107  007A86  A4D8               	btfss	status,2,c
  1108  007A88  D008               	goto	l1945
  1109  007A8A  0E00               	movlw	0
  1110  007A8C  6E28               	movwf	___flmul@b,c
  1111  007A8E  0E00               	movlw	0
  1112  007A90  6E29               	movwf	___flmul@b+1,c
  1113  007A92  0E00               	movlw	0
  1114  007A94  6E2A               	movwf	___flmul@b+2,c
  1115  007A96  0E00               	movlw	0
  1116  007A98  6E2B               	movwf	___flmul@b+3,c
  1117  007A9A                     l1945:
  1118  007A9A  8E2A               	bsf	___flmul@b+2,7,c
  1119  007A9C  D008               	goto	l1949
  1120  007A9E                     l1947:
  1121  007A9E  0E00               	movlw	0
  1122  007AA0  6E28               	movwf	___flmul@b,c
  1123  007AA2  0E00               	movlw	0
  1124  007AA4  6E29               	movwf	___flmul@b+1,c
  1125  007AA6  0E00               	movlw	0
  1126  007AA8  6E2A               	movwf	___flmul@b+2,c
  1127  007AAA  0E00               	movlw	0
  1128  007AAC  6E2B               	movwf	___flmul@b+3,c
  1129  007AAE                     l1949:
  1130  007AAE  502F               	movf	___flmul@a+3,w,c
  1131  007AB0  0B80               	andlw	128
  1132  007AB2  1A34               	xorwf	___flmul@sign,f,c
  1133  007AB4  502F               	movf	___flmul@a+3,w,c
  1134  007AB6  242F               	addwf	___flmul@a+3,w,c
  1135  007AB8  6E39               	movwf	___flmul@aexp,c
  1136  007ABA  BE2E               	btfsc	___flmul@a+2,7,c
  1137  007ABC  8039               	bsf	___flmul@aexp,0,c
  1138  007ABE  5039               	movf	___flmul@aexp,w,c
  1139  007AC0  B4D8               	btfsc	status,2,c
  1140  007AC2  D00D               	goto	l1965
  1141  007AC4  2839               	incf	___flmul@aexp,w,c
  1142  007AC6  A4D8               	btfss	status,2,c
  1143  007AC8  D008               	goto	l1963
  1144  007ACA  0E00               	movlw	0
  1145  007ACC  6E2C               	movwf	___flmul@a,c
  1146  007ACE  0E00               	movlw	0
  1147  007AD0  6E2D               	movwf	___flmul@a+1,c
  1148  007AD2  0E00               	movlw	0
  1149  007AD4  6E2E               	movwf	___flmul@a+2,c
  1150  007AD6  0E00               	movlw	0
  1151  007AD8  6E2F               	movwf	___flmul@a+3,c
  1152  007ADA                     l1963:
  1153  007ADA  8E2E               	bsf	___flmul@a+2,7,c
  1154  007ADC  D008               	goto	l698
  1155  007ADE                     l1965:
  1156  007ADE  0E00               	movlw	0
  1157  007AE0  6E2C               	movwf	___flmul@a,c
  1158  007AE2  0E00               	movlw	0
  1159  007AE4  6E2D               	movwf	___flmul@a+1,c
  1160  007AE6  0E00               	movlw	0
  1161  007AE8  6E2E               	movwf	___flmul@a+2,c
  1162  007AEA  0E00               	movlw	0
  1163  007AEC  6E2F               	movwf	___flmul@a+3,c
  1164  007AEE                     l698:
  1165  007AEE  5039               	movf	___flmul@aexp,w,c
  1166  007AF0  B4D8               	btfsc	status,2,c
  1167  007AF2  D003               	goto	u2020
  1168  007AF4  503A               	movf	___flmul@bexp,w,c
  1169  007AF6  A4D8               	btfss	status,2,c
  1170  007AF8  D009               	goto	l1973
  1171  007AFA                     u2020:
  1172  007AFA  0E00               	movlw	0
  1173  007AFC  6E28               	movwf	?___flmul,c
  1174  007AFE  0E00               	movlw	0
  1175  007B00  6E29               	movwf	?___flmul+1,c
  1176  007B02  0E00               	movlw	0
  1177  007B04  6E2A               	movwf	?___flmul+2,c
  1178  007B06  0E00               	movlw	0
  1179  007B08  6E2B               	movwf	?___flmul+3,c
  1180  007B0A  0012               	return	
  1181  007B0C                     l1973:
  1182  007B0C  502E               	movf	___flmul@a+2,w,c
  1183  007B0E  0228               	mulwf	___flmul@b,c
  1184  007B10  CFF3 F03F          	movff	prodl,___flmul@temp
  1185  007B14  CFF4 F040          	movff	prodh,___flmul@temp+1
  1186  007B18  503F               	movf	___flmul@temp,w,c
  1187  007B1A  6E35               	movwf	___flmul@grs,c
  1188  007B1C  6A36               	clrf	___flmul@grs+1,c
  1189  007B1E  6A37               	clrf	___flmul@grs+2,c
  1190  007B20  6A38               	clrf	___flmul@grs+3,c
  1191  007B22  5040               	movf	___flmul@temp+1,w,c
  1192  007B24  6E3B               	movwf	___flmul@prod,c
  1193  007B26  6A3C               	clrf	___flmul@prod+1,c
  1194  007B28  6A3D               	clrf	___flmul@prod+2,c
  1195  007B2A  6A3E               	clrf	___flmul@prod+3,c
  1196  007B2C  502D               	movf	___flmul@a+1,w,c
  1197  007B2E  0229               	mulwf	___flmul@b+1,c
  1198  007B30  CFF3 F03F          	movff	prodl,___flmul@temp
  1199  007B34  CFF4 F040          	movff	prodh,___flmul@temp+1
  1200  007B38  503F               	movf	___flmul@temp,w,c
  1201  007B3A  2635               	addwf	___flmul@grs,f,c
  1202  007B3C  0E00               	movlw	0
  1203  007B3E  2236               	addwfc	___flmul@grs+1,f,c
  1204  007B40  2237               	addwfc	___flmul@grs+2,f,c
  1205  007B42  2238               	addwfc	___flmul@grs+3,f,c
  1206  007B44  5040               	movf	___flmul@temp+1,w,c
  1207  007B46  263B               	addwf	___flmul@prod,f,c
  1208  007B48  0E00               	movlw	0
  1209  007B4A  223C               	addwfc	___flmul@prod+1,f,c
  1210  007B4C  223D               	addwfc	___flmul@prod+2,f,c
  1211  007B4E  223E               	addwfc	___flmul@prod+3,f,c
  1212  007B50  502C               	movf	___flmul@a,w,c
  1213  007B52  022A               	mulwf	___flmul@b+2,c
  1214  007B54  CFF3 F03F          	movff	prodl,___flmul@temp
  1215  007B58  CFF4 F040          	movff	prodh,___flmul@temp+1
  1216  007B5C  503F               	movf	___flmul@temp,w,c
  1217  007B5E  2635               	addwf	___flmul@grs,f,c
  1218  007B60  0E00               	movlw	0
  1219  007B62  2236               	addwfc	___flmul@grs+1,f,c
  1220  007B64  2237               	addwfc	___flmul@grs+2,f,c
  1221  007B66  2238               	addwfc	___flmul@grs+3,f,c
  1222  007B68  5040               	movf	___flmul@temp+1,w,c
  1223  007B6A  263B               	addwf	___flmul@prod,f,c
  1224  007B6C  0E00               	movlw	0
  1225  007B6E  223C               	addwfc	___flmul@prod+1,f,c
  1226  007B70  223D               	addwfc	___flmul@prod+2,f,c
  1227  007B72  223E               	addwfc	___flmul@prod+3,f,c
  1228  007B74  C037  F038         	movff	___flmul@grs+2,___flmul@grs+3
  1229  007B78  C036  F037         	movff	___flmul@grs+1,___flmul@grs+2
  1230  007B7C  C035  F036         	movff	___flmul@grs,___flmul@grs+1
  1231  007B80  6A35               	clrf	___flmul@grs,c
  1232  007B82  502C               	movf	___flmul@a,w,c
  1233  007B84  0229               	mulwf	___flmul@b+1,c
  1234  007B86  CFF3 F03F          	movff	prodl,___flmul@temp
  1235  007B8A  CFF4 F040          	movff	prodh,___flmul@temp+1
  1236  007B8E  503F               	movf	___flmul@temp,w,c
  1237  007B90  2635               	addwf	___flmul@grs,f,c
  1238  007B92  5040               	movf	___flmul@temp+1,w,c
  1239  007B94  2236               	addwfc	___flmul@grs+1,f,c
  1240  007B96  0E00               	movlw	0
  1241  007B98  2237               	addwfc	___flmul@grs+2,f,c
  1242  007B9A  0E00               	movlw	0
  1243  007B9C  2238               	addwfc	___flmul@grs+3,f,c
  1244  007B9E  502D               	movf	___flmul@a+1,w,c
  1245  007BA0  0228               	mulwf	___flmul@b,c
  1246  007BA2  CFF3 F03F          	movff	prodl,___flmul@temp
  1247  007BA6  CFF4 F040          	movff	prodh,___flmul@temp+1
  1248  007BAA  503F               	movf	___flmul@temp,w,c
  1249  007BAC  2635               	addwf	___flmul@grs,f,c
  1250  007BAE  5040               	movf	___flmul@temp+1,w,c
  1251  007BB0  2236               	addwfc	___flmul@grs+1,f,c
  1252  007BB2  0E00               	movlw	0
  1253  007BB4  2237               	addwfc	___flmul@grs+2,f,c
  1254  007BB6  0E00               	movlw	0
  1255  007BB8  2238               	addwfc	___flmul@grs+3,f,c
  1256  007BBA  C037  F038         	movff	___flmul@grs+2,___flmul@grs+3
  1257  007BBE  C036  F037         	movff	___flmul@grs+1,___flmul@grs+2
  1258  007BC2  C035  F036         	movff	___flmul@grs,___flmul@grs+1
  1259  007BC6  6A35               	clrf	___flmul@grs,c
  1260  007BC8  502C               	movf	___flmul@a,w,c
  1261  007BCA  0228               	mulwf	___flmul@b,c
  1262  007BCC  CFF3 F03F          	movff	prodl,___flmul@temp
  1263  007BD0  CFF4 F040          	movff	prodh,___flmul@temp+1
  1264  007BD4  503F               	movf	___flmul@temp,w,c
  1265  007BD6  2635               	addwf	___flmul@grs,f,c
  1266  007BD8  5040               	movf	___flmul@temp+1,w,c
  1267  007BDA  2236               	addwfc	___flmul@grs+1,f,c
  1268  007BDC  0E00               	movlw	0
  1269  007BDE  2237               	addwfc	___flmul@grs+2,f,c
  1270  007BE0  0E00               	movlw	0
  1271  007BE2  2238               	addwfc	___flmul@grs+3,f,c
  1272  007BE4  502E               	movf	___flmul@a+2,w,c
  1273  007BE6  0229               	mulwf	___flmul@b+1,c
  1274  007BE8  CFF3 F03F          	movff	prodl,___flmul@temp
  1275  007BEC  CFF4 F040          	movff	prodh,___flmul@temp+1
  1276  007BF0  503F               	movf	___flmul@temp,w,c
  1277  007BF2  263B               	addwf	___flmul@prod,f,c
  1278  007BF4  5040               	movf	___flmul@temp+1,w,c
  1279  007BF6  223C               	addwfc	___flmul@prod+1,f,c
  1280  007BF8  0E00               	movlw	0
  1281  007BFA  223D               	addwfc	___flmul@prod+2,f,c
  1282  007BFC  0E00               	movlw	0
  1283  007BFE  223E               	addwfc	___flmul@prod+3,f,c
  1284  007C00  502D               	movf	___flmul@a+1,w,c
  1285  007C02  022A               	mulwf	___flmul@b+2,c
  1286  007C04  CFF3 F03F          	movff	prodl,___flmul@temp
  1287  007C08  CFF4 F040          	movff	prodh,___flmul@temp+1
  1288  007C0C  503F               	movf	___flmul@temp,w,c
  1289  007C0E  263B               	addwf	___flmul@prod,f,c
  1290  007C10  5040               	movf	___flmul@temp+1,w,c
  1291  007C12  223C               	addwfc	___flmul@prod+1,f,c
  1292  007C14  0E00               	movlw	0
  1293  007C16  223D               	addwfc	___flmul@prod+2,f,c
  1294  007C18  0E00               	movlw	0
  1295  007C1A  223E               	addwfc	___flmul@prod+3,f,c
  1296  007C1C  502E               	movf	___flmul@a+2,w,c
  1297  007C1E  022A               	mulwf	___flmul@b+2,c
  1298  007C20  CFF3 F03F          	movff	prodl,___flmul@temp
  1299  007C24  CFF4 F040          	movff	prodh,___flmul@temp+1
  1300  007C28  503F               	movf	___flmul@temp,w,c
  1301  007C2A  6E30               	movwf	??___flmul& (0+255),c
  1302  007C2C  5040               	movf	___flmul@temp+1,w,c
  1303  007C2E  6E31               	movwf	(??___flmul+1)& (0+255),c
  1304  007C30  6A32               	clrf	(??___flmul+2)& (0+255),c
  1305  007C32  6A33               	clrf	(??___flmul+3)& (0+255),c
  1306  007C34  C032  F033         	movff	??___flmul+2,??___flmul+3
  1307  007C38  C031  F032         	movff	??___flmul+1,??___flmul+2
  1308  007C3C  C030  F031         	movff	??___flmul,??___flmul+1
  1309  007C40  6A30               	clrf	??___flmul,c
  1310  007C42  5030               	movf	??___flmul,w,c
  1311  007C44  263B               	addwf	___flmul@prod,f,c
  1312  007C46  5031               	movf	??___flmul+1,w,c
  1313  007C48  223C               	addwfc	___flmul@prod+1,f,c
  1314  007C4A  5032               	movf	??___flmul+2,w,c
  1315  007C4C  223D               	addwfc	___flmul@prod+2,f,c
  1316  007C4E  5033               	movf	??___flmul+3,w,c
  1317  007C50  223E               	addwfc	___flmul@prod+3,f,c
  1318  007C52  C035  F030         	movff	___flmul@grs,??___flmul
  1319  007C56  C036  F031         	movff	___flmul@grs+1,??___flmul+1
  1320  007C5A  C037  F032         	movff	___flmul@grs+2,??___flmul+2
  1321  007C5E  C038  F033         	movff	___flmul@grs+3,??___flmul+3
  1322  007C62  0E19               	movlw	25
  1323  007C64  D005               	goto	u2030
  1324  007C66                     u2035:
  1325  007C66  90D8               	bcf	status,0,c
  1326  007C68  3233               	rrcf	??___flmul+3,f,c
  1327  007C6A  3232               	rrcf	??___flmul+2,f,c
  1328  007C6C  3231               	rrcf	??___flmul+1,f,c
  1329  007C6E  3230               	rrcf	??___flmul,f,c
  1330  007C70                     u2030:
  1331  007C70  2EE8               	decfsz	wreg,f,c
  1332  007C72  D7F9               	goto	u2035
  1333  007C74  5030               	movf	??___flmul,w,c
  1334  007C76  263B               	addwf	___flmul@prod,f,c
  1335  007C78  5031               	movf	??___flmul+1,w,c
  1336  007C7A  223C               	addwfc	___flmul@prod+1,f,c
  1337  007C7C  5032               	movf	??___flmul+2,w,c
  1338  007C7E  223D               	addwfc	___flmul@prod+2,f,c
  1339  007C80  5033               	movf	??___flmul+3,w,c
  1340  007C82  223E               	addwfc	___flmul@prod+3,f,c
  1341  007C84  C037  F038         	movff	___flmul@grs+2,___flmul@grs+3
  1342  007C88  C036  F037         	movff	___flmul@grs+1,___flmul@grs+2
  1343  007C8C  C035  F036         	movff	___flmul@grs,___flmul@grs+1
  1344  007C90  6A35               	clrf	___flmul@grs,c
  1345  007C92  5039               	movf	___flmul@aexp,w,c
  1346  007C94  C03A  F030         	movff	___flmul@bexp,??___flmul
  1347  007C98  6A31               	clrf	(??___flmul+1)& (0+255),c
  1348  007C9A  2630               	addwf	??___flmul,f,c
  1349  007C9C  0E00               	movlw	0
  1350  007C9E  2231               	addwfc	??___flmul+1,f,c
  1351  007CA0  0E82               	movlw	130
  1352  007CA2  2430               	addwf	??___flmul,w,c
  1353  007CA4  6E3F               	movwf	___flmul@temp,c
  1354  007CA6  0EFF               	movlw	255
  1355  007CA8  2031               	addwfc	??___flmul+1,w,c
  1356  007CAA  6E40               	movwf	___flmul@temp+1,c
  1357  007CAC  D00F               	goto	l2021
  1358  007CAE                     l2015:
  1359  007CAE  90D8               	bcf	status,0,c
  1360  007CB0  363B               	rlcf	___flmul@prod,f,c
  1361  007CB2  363C               	rlcf	___flmul@prod+1,f,c
  1362  007CB4  363D               	rlcf	___flmul@prod+2,f,c
  1363  007CB6  363E               	rlcf	___flmul@prod+3,f,c
  1364  007CB8  BE38               	btfsc	___flmul@grs+3,7,c
  1365  007CBA  803B               	bsf	___flmul@prod,0,c
  1366  007CBC  90D8               	bcf	status,0,c
  1367  007CBE  3635               	rlcf	___flmul@grs,f,c
  1368  007CC0  3636               	rlcf	___flmul@grs+1,f,c
  1369  007CC2  3637               	rlcf	___flmul@grs+2,f,c
  1370  007CC4  3638               	rlcf	___flmul@grs+3,f,c
  1371  007CC6  063F               	decf	___flmul@temp,f,c
  1372  007CC8  A0D8               	btfss	status,0,c
  1373  007CCA  0640               	decf	___flmul@temp+1,f,c
  1374  007CCC                     l2021:
  1375  007CCC  AE3D               	btfss	___flmul@prod+2,7,c
  1376  007CCE  D7EF               	goto	l2015
  1377  007CD0  0E00               	movlw	0
  1378  007CD2  6E39               	movwf	___flmul@aexp,c
  1379  007CD4  AE38               	btfss	___flmul@grs+3,7,c
  1380  007CD6  D017               	goto	l707
  1381  007CD8  0EFF               	movlw	255
  1382  007CDA  1435               	andwf	___flmul@grs,w,c
  1383  007CDC  6E30               	movwf	??___flmul& (0+255),c
  1384  007CDE  0EFF               	movlw	255
  1385  007CE0  1436               	andwf	___flmul@grs+1,w,c
  1386  007CE2  6E31               	movwf	(??___flmul+1)& (0+255),c
  1387  007CE4  0EFF               	movlw	255
  1388  007CE6  1437               	andwf	___flmul@grs+2,w,c
  1389  007CE8  6E32               	movwf	(??___flmul+2)& (0+255),c
  1390  007CEA  0E7F               	movlw	127
  1391  007CEC  1438               	andwf	___flmul@grs+3,w,c
  1392  007CEE  6E33               	movwf	(??___flmul+3)& (0+255),c
  1393  007CF0  5030               	movf	??___flmul,w,c
  1394  007CF2  1031               	iorwf	??___flmul+1,w,c
  1395  007CF4  1032               	iorwf	??___flmul+2,w,c
  1396  007CF6  1033               	iorwf	??___flmul+3,w,c
  1397  007CF8  B4D8               	btfsc	status,2,c
  1398  007CFA  D003               	goto	l708
  1399  007CFC                     u2070:
  1400  007CFC  0E01               	movlw	1
  1401  007CFE  6E39               	movwf	___flmul@aexp,c
  1402  007D00  D002               	goto	l707
  1403  007D02                     l708:
  1404  007D02  B03B               	btfsc	___flmul@prod,0,c
  1405  007D04  D7FB               	goto	u2070
  1406  007D06                     l707:
  1407  007D06  5039               	movf	___flmul@aexp,w,c
  1408  007D08  B4D8               	btfsc	status,2,c
  1409  007D0A  D01F               	goto	l2041
  1410  007D0C  0E01               	movlw	1
  1411  007D0E  263B               	addwf	___flmul@prod,f,c
  1412  007D10  0E00               	movlw	0
  1413  007D12  223C               	addwfc	___flmul@prod+1,f,c
  1414  007D14  223D               	addwfc	___flmul@prod+2,f,c
  1415  007D16  223E               	addwfc	___flmul@prod+3,f,c
  1416  007D18  A03E               	btfss	___flmul@prod+3,0,c
  1417  007D1A  D017               	goto	l2041
  1418  007D1C  C03B  F030         	movff	___flmul@prod,??___flmul
  1419  007D20  C03C  F031         	movff	___flmul@prod+1,??___flmul+1
  1420  007D24  C03D  F032         	movff	___flmul@prod+2,??___flmul+2
  1421  007D28  C03E  F033         	movff	___flmul@prod+3,??___flmul+3
  1422  007D2C  3433               	rlcf	??___flmul+3,w,c
  1423  007D2E  3233               	rrcf	??___flmul+3,f,c
  1424  007D30  3232               	rrcf	??___flmul+2,f,c
  1425  007D32  3231               	rrcf	??___flmul+1,f,c
  1426  007D34  3230               	rrcf	??___flmul,f,c
  1427  007D36  C030  F03B         	movff	??___flmul,___flmul@prod
  1428  007D3A  C031  F03C         	movff	??___flmul+1,___flmul@prod+1
  1429  007D3E  C032  F03D         	movff	??___flmul+2,___flmul@prod+2
  1430  007D42  C033  F03E         	movff	??___flmul+3,___flmul@prod+3
  1431  007D46  4A3F               	infsnz	___flmul@temp,f,c
  1432  007D48  2A40               	incf	___flmul@temp+1,f,c
  1433  007D4A                     l2041:
  1434  007D4A  BE40               	btfsc	___flmul@temp+1,7,c
  1435  007D4C  D00D               	goto	l2045
  1436  007D4E  5040               	movf	___flmul@temp+1,w,c
  1437  007D50  E103               	bnz	u2110
  1438  007D52  283F               	incf	___flmul@temp,w,c
  1439  007D54  A0D8               	btfss	status,0,c
  1440  007D56  D008               	goto	l2045
  1441  007D58                     u2110:
  1442  007D58  0E00               	movlw	0
  1443  007D5A  6E3B               	movwf	___flmul@prod,c
  1444  007D5C  0E00               	movlw	0
  1445  007D5E  6E3C               	movwf	___flmul@prod+1,c
  1446  007D60  0E80               	movlw	128
  1447  007D62  6E3D               	movwf	___flmul@prod+2,c
  1448  007D64  0E7F               	movlw	127
  1449  007D66  D020               	goto	L1
  1450  007D68                     l2045:
  1451  007D68  BE40               	btfsc	___flmul@temp+1,7,c
  1452  007D6A  D005               	goto	u2120
  1453  007D6C  5040               	movf	___flmul@temp+1,w,c
  1454  007D6E  E10E               	bnz	l715
  1455  007D70  043F               	decf	___flmul@temp,w,c
  1456  007D72  B0D8               	btfsc	status,0,c
  1457  007D74  D00B               	goto	l715
  1458  007D76                     u2120:
  1459  007D76  0E00               	movlw	0
  1460  007D78  6E3B               	movwf	___flmul@prod,c
  1461  007D7A  0E00               	movlw	0
  1462  007D7C  6E3C               	movwf	___flmul@prod+1,c
  1463  007D7E  0E00               	movlw	0
  1464  007D80  6E3D               	movwf	___flmul@prod+2,c
  1465  007D82  0E00               	movlw	0
  1466  007D84  6E3E               	movwf	___flmul@prod+3,c
  1467  007D86  0E00               	movlw	0
  1468  007D88  6E34               	movwf	___flmul@sign,c
  1469  007D8A  D00F               	goto	l2057
  1470  007D8C                     l715:
  1471  007D8C  C03F  F03A         	movff	___flmul@temp,___flmul@bexp
  1472  007D90  0EFF               	movlw	255
  1473  007D92  163B               	andwf	___flmul@prod,f,c
  1474  007D94  0EFF               	movlw	255
  1475  007D96  163C               	andwf	___flmul@prod+1,f,c
  1476  007D98  0E7F               	movlw	127
  1477  007D9A  163D               	andwf	___flmul@prod+2,f,c
  1478  007D9C  0E00               	movlw	0
  1479  007D9E  163E               	andwf	___flmul@prod+3,f,c
  1480  007DA0  B03A               	btfsc	___flmul@bexp,0,c
  1481  007DA2  8E3D               	bsf	___flmul@prod+2,7,c
  1482  007DA4  90D8               	bcf	status,0,c
  1483  007DA6  303A               	rrcf	___flmul@bexp,w,c
  1484  007DA8                     L1:
  1485  007DA8  6E3E               	movwf	___flmul@prod+3,c
  1486  007DAA                     l2057:
  1487  007DAA  5034               	movf	___flmul@sign,w,c
  1488  007DAC  123E               	iorwf	___flmul@prod+3,f,c
  1489  007DAE  C03B  F028         	movff	___flmul@prod,?___flmul
  1490  007DB2  C03C  F029         	movff	___flmul@prod+1,?___flmul+1
  1491  007DB6  C03D  F02A         	movff	___flmul@prod+2,?___flmul+2
  1492  007DBA  C03E  F02B         	movff	___flmul@prod+3,?___flmul+3
  1493  007DBE  0012               	return		;funcret
  1494  007DC0                     __end_of___flmul:
  1495                           	opt callstack 0
  1496                           
  1497 ;; *************** function ___fldiv *****************
  1498 ;; Defined at:
  1499 ;;		line 11 in file "C:\Program Files (x86)\Microchip\xc8\v2.05\pic\sources\c90\common\sprcdiv.c"
  1500 ;; Parameters:    Size  Location     Type
  1501 ;;  b               4   14[COMRAM] unsigned char 
  1502 ;;  a               4   18[COMRAM] unsigned char 
  1503 ;; Auto vars:     Size  Location     Type
  1504 ;;  grs             4   33[COMRAM] unsigned long 
  1505 ;;  rem             4   26[COMRAM] unsigned long 
  1506 ;;  new_exp         2   31[COMRAM] int 
  1507 ;;  aexp            1   38[COMRAM] unsigned char 
  1508 ;;  bexp            1   37[COMRAM] unsigned char 
  1509 ;;  sign            1   30[COMRAM] unsigned char 
  1510 ;; Return value:  Size  Location     Type
  1511 ;;                  4   14[COMRAM] unsigned char 
  1512 ;; Registers used:
  1513 ;;		wreg, status,2, status,0
  1514 ;; Tracked objects:
  1515 ;;		On entry : 0/0
  1516 ;;		On exit  : 0/0
  1517 ;;		Unchanged: 0/0
  1518 ;; Data sizes:     COMRAM   BANK0   BANK1   BANK2   BANK3   BANK4   BANK5
  1519 ;;      Params:         8       0       0       0       0       0       0
  1520 ;;      Locals:        13       0       0       0       0       0       0
  1521 ;;      Temps:          4       0       0       0       0       0       0
  1522 ;;      Totals:        25       0       0       0       0       0       0
  1523 ;;Total ram usage:       25 bytes
  1524 ;; Hardware stack levels used:    1
  1525 ;; This function calls:
  1526 ;;		Nothing
  1527 ;; This function is called by:
  1528 ;;		_servoRun
  1529 ;; This function uses a non-reentrant model
  1530 ;;
  1531                           
  1532                           	psect	text6
  1533  0074DA                     __ptext6:
  1534                           	opt callstack 0
  1535  0074DA                     ___fldiv:
  1536                           	opt callstack 29
  1537                           
  1538                           ;incstack = 0
  1539  0074DA  5012               	movf	___fldiv@b+3,w,c
  1540  0074DC  0B80               	andlw	128
  1541  0074DE  6E1F               	movwf	___fldiv@sign,c
  1542  0074E0  5012               	movf	___fldiv@b+3,w,c
  1543  0074E2  2412               	addwf	___fldiv@b+3,w,c
  1544  0074E4  6E26               	movwf	___fldiv@bexp,c
  1545  0074E6  BE11               	btfsc	___fldiv@b+2,7,c
  1546  0074E8  8026               	bsf	___fldiv@bexp,0,c
  1547  0074EA  5026               	movf	___fldiv@bexp,w,c
  1548  0074EC  B4D8               	btfsc	status,2,c
  1549  0074EE  D00D               	goto	l1811
  1550  0074F0  2826               	incf	___fldiv@bexp,w,c
  1551  0074F2  A4D8               	btfss	status,2,c
  1552  0074F4  D008               	goto	l1807
  1553  0074F6  0E00               	movlw	0
  1554  0074F8  6E0F               	movwf	___fldiv@b,c
  1555  0074FA  0E00               	movlw	0
  1556  0074FC  6E10               	movwf	___fldiv@b+1,c
  1557  0074FE  0E00               	movlw	0
  1558  007500  6E11               	movwf	___fldiv@b+2,c
  1559  007502  0E00               	movlw	0
  1560  007504  6E12               	movwf	___fldiv@b+3,c
  1561  007506                     l1807:
  1562  007506  8E11               	bsf	___fldiv@b+2,7,c
  1563  007508  D006               	goto	L2
  1564  00750A                     l1811:
  1565  00750A  0E00               	movlw	0
  1566  00750C  6E0F               	movwf	___fldiv@b,c
  1567  00750E  0E00               	movlw	0
  1568  007510  6E10               	movwf	___fldiv@b+1,c
  1569  007512  0E00               	movlw	0
  1570  007514  6E11               	movwf	___fldiv@b+2,c
  1571  007516                     L2:
  1572  007516  0E00               	movlw	0
  1573  007518  6E12               	movwf	___fldiv@b+3,c
  1574  00751A  5016               	movf	___fldiv@a+3,w,c
  1575  00751C  0B80               	andlw	128
  1576  00751E  1A1F               	xorwf	___fldiv@sign,f,c
  1577  007520  5016               	movf	___fldiv@a+3,w,c
  1578  007522  2416               	addwf	___fldiv@a+3,w,c
  1579  007524  6E27               	movwf	___fldiv@aexp,c
  1580  007526  BE15               	btfsc	___fldiv@a+2,7,c
  1581  007528  8027               	bsf	___fldiv@aexp,0,c
  1582  00752A  5027               	movf	___fldiv@aexp,w,c
  1583  00752C  B4D8               	btfsc	status,2,c
  1584  00752E  D00D               	goto	l1831
  1585  007530  2827               	incf	___fldiv@aexp,w,c
  1586  007532  A4D8               	btfss	status,2,c
  1587  007534  D008               	goto	l1827
  1588  007536  0E00               	movlw	0
  1589  007538  6E13               	movwf	___fldiv@a,c
  1590  00753A  0E00               	movlw	0
  1591  00753C  6E14               	movwf	___fldiv@a+1,c
  1592  00753E  0E00               	movlw	0
  1593  007540  6E15               	movwf	___fldiv@a+2,c
  1594  007542  0E00               	movlw	0
  1595  007544  6E16               	movwf	___fldiv@a+3,c
  1596  007546                     l1827:
  1597  007546  8E15               	bsf	___fldiv@a+2,7,c
  1598  007548  D006               	goto	L3
  1599  00754A                     l1831:
  1600  00754A  0E00               	movlw	0
  1601  00754C  6E13               	movwf	___fldiv@a,c
  1602  00754E  0E00               	movlw	0
  1603  007550  6E14               	movwf	___fldiv@a+1,c
  1604  007552  0E00               	movlw	0
  1605  007554  6E15               	movwf	___fldiv@a+2,c
  1606  007556                     L3:
  1607  007556  0E00               	movlw	0
  1608  007558  6E16               	movwf	___fldiv@a+3,c
  1609  00755A  5013               	movf	___fldiv@a,w,c
  1610  00755C  1014               	iorwf	___fldiv@a+1,w,c
  1611  00755E  1015               	iorwf	___fldiv@a+2,w,c
  1612  007560  1016               	iorwf	___fldiv@a+3,w,c
  1613  007562  A4D8               	btfss	status,2,c
  1614  007564  D017               	goto	l1845
  1615  007566  0E00               	movlw	0
  1616  007568  6E0F               	movwf	___fldiv@b,c
  1617  00756A  0E00               	movlw	0
  1618  00756C  6E10               	movwf	___fldiv@b+1,c
  1619  00756E  0E00               	movlw	0
  1620  007570  6E11               	movwf	___fldiv@b+2,c
  1621  007572  0E00               	movlw	0
  1622  007574  6E12               	movwf	___fldiv@b+3,c
  1623  007576  0E80               	movlw	128
  1624  007578  1211               	iorwf	___fldiv@b+2,f,c
  1625  00757A  0E7F               	movlw	127
  1626  00757C  1212               	iorwf	___fldiv@b+3,f,c
  1627  00757E                     l1839:
  1628  00757E  501F               	movf	___fldiv@sign,w,c
  1629  007580  1212               	iorwf	___fldiv@b+3,f,c
  1630  007582  C00F  F00F         	movff	___fldiv@b,?___fldiv
  1631  007586  C010  F010         	movff	___fldiv@b+1,?___fldiv+1
  1632  00758A  C011  F011         	movff	___fldiv@b+2,?___fldiv+2
  1633  00758E  C012  F012         	movff	___fldiv@b+3,?___fldiv+3
  1634  007592  0012               	return	
  1635  007594                     l1845:
  1636  007594  5026               	movf	___fldiv@bexp,w,c
  1637  007596  A4D8               	btfss	status,2,c
  1638  007598  D009               	goto	l1853
  1639  00759A  0E00               	movlw	0
  1640  00759C  6E0F               	movwf	?___fldiv,c
  1641  00759E  0E00               	movlw	0
  1642  0075A0  6E10               	movwf	?___fldiv+1,c
  1643  0075A2  0E00               	movlw	0
  1644  0075A4  6E11               	movwf	?___fldiv+2,c
  1645  0075A6  0E00               	movlw	0
  1646  0075A8  6E12               	movwf	?___fldiv+3,c
  1647  0075AA  0012               	return	
  1648  0075AC                     l1853:
  1649  0075AC  5027               	movf	___fldiv@aexp,w,c
  1650  0075AE  C026  F017         	movff	___fldiv@bexp,??___fldiv
  1651  0075B2  6A18               	clrf	(??___fldiv+1)& (0+255),c
  1652  0075B4  5E17               	subwf	??___fldiv,f,c
  1653  0075B6  0E00               	movlw	0
  1654  0075B8  5A18               	subwfb	??___fldiv+1,f,c
  1655  0075BA  0E7F               	movlw	127
  1656  0075BC  2417               	addwf	??___fldiv,w,c
  1657  0075BE  6E20               	movwf	___fldiv@new_exp,c
  1658  0075C0  0E00               	movlw	0
  1659  0075C2  2018               	addwfc	??___fldiv+1,w,c
  1660  0075C4  6E21               	movwf	___fldiv@new_exp+1,c
  1661  0075C6  C00F  F01B         	movff	___fldiv@b,___fldiv@rem
  1662  0075CA  C010  F01C         	movff	___fldiv@b+1,___fldiv@rem+1
  1663  0075CE  C011  F01D         	movff	___fldiv@b+2,___fldiv@rem+2
  1664  0075D2  C012  F01E         	movff	___fldiv@b+3,___fldiv@rem+3
  1665  0075D6  0E00               	movlw	0
  1666  0075D8  6E0F               	movwf	___fldiv@b,c
  1667  0075DA  0E00               	movlw	0
  1668  0075DC  6E10               	movwf	___fldiv@b+1,c
  1669  0075DE  0E00               	movlw	0
  1670  0075E0  6E11               	movwf	___fldiv@b+2,c
  1671  0075E2  0E00               	movlw	0
  1672  0075E4  6E12               	movwf	___fldiv@b+3,c
  1673  0075E6  0E00               	movlw	0
  1674  0075E8  6E22               	movwf	___fldiv@grs,c
  1675  0075EA  0E00               	movlw	0
  1676  0075EC  6E23               	movwf	___fldiv@grs+1,c
  1677  0075EE  0E00               	movlw	0
  1678  0075F0  6E24               	movwf	___fldiv@grs+2,c
  1679  0075F2  0E00               	movlw	0
  1680  0075F4  6E25               	movwf	___fldiv@grs+3,c
  1681  0075F6  0E00               	movlw	0
  1682  0075F8  6E27               	movwf	___fldiv@aexp,c
  1683  0075FA  D028               	goto	l668
  1684  0075FC                     l1863:
  1685  0075FC  5027               	movf	___fldiv@aexp,w,c
  1686  0075FE  B4D8               	btfsc	status,2,c
  1687  007600  D011               	goto	l1871
  1688  007602  90D8               	bcf	status,0,c
  1689  007604  361B               	rlcf	___fldiv@rem,f,c
  1690  007606  361C               	rlcf	___fldiv@rem+1,f,c
  1691  007608  361D               	rlcf	___fldiv@rem+2,f,c
  1692  00760A  361E               	rlcf	___fldiv@rem+3,f,c
  1693  00760C  90D8               	bcf	status,0,c
  1694  00760E  360F               	rlcf	___fldiv@b,f,c
  1695  007610  3610               	rlcf	___fldiv@b+1,f,c
  1696  007612  3611               	rlcf	___fldiv@b+2,f,c
  1697  007614  3612               	rlcf	___fldiv@b+3,f,c
  1698  007616  BE25               	btfsc	___fldiv@grs+3,7,c
  1699  007618  800F               	bsf	___fldiv@b,0,c
  1700  00761A  90D8               	bcf	status,0,c
  1701  00761C  3622               	rlcf	___fldiv@grs,f,c
  1702  00761E  3623               	rlcf	___fldiv@grs+1,f,c
  1703  007620  3624               	rlcf	___fldiv@grs+2,f,c
  1704  007622  3625               	rlcf	___fldiv@grs+3,f,c
  1705  007624                     l1871:
  1706  007624  5013               	movf	___fldiv@a,w,c
  1707  007626  5C1B               	subwf	___fldiv@rem,w,c
  1708  007628  5014               	movf	___fldiv@a+1,w,c
  1709  00762A  581C               	subwfb	___fldiv@rem+1,w,c
  1710  00762C  5015               	movf	___fldiv@a+2,w,c
  1711  00762E  581D               	subwfb	___fldiv@rem+2,w,c
  1712  007630  5016               	movf	___fldiv@a+3,w,c
  1713  007632  581E               	subwfb	___fldiv@rem+3,w,c
  1714  007634  A0D8               	btfss	status,0,c
  1715  007636  D009               	goto	l1877
  1716  007638  8C25               	bsf	___fldiv@grs+3,6,c
  1717  00763A  5013               	movf	___fldiv@a,w,c
  1718  00763C  5E1B               	subwf	___fldiv@rem,f,c
  1719  00763E  5014               	movf	___fldiv@a+1,w,c
  1720  007640  5A1C               	subwfb	___fldiv@rem+1,f,c
  1721  007642  5015               	movf	___fldiv@a+2,w,c
  1722  007644  5A1D               	subwfb	___fldiv@rem+2,f,c
  1723  007646  5016               	movf	___fldiv@a+3,w,c
  1724  007648  5A1E               	subwfb	___fldiv@rem+3,f,c
  1725  00764A                     l1877:
  1726  00764A  2A27               	incf	___fldiv@aexp,f,c
  1727  00764C                     l668:
  1728  00764C  0E19               	movlw	25
  1729  00764E  6427               	cpfsgt	___fldiv@aexp,c
  1730  007650  D7D5               	goto	l1863
  1731  007652  501B               	movf	___fldiv@rem,w,c
  1732  007654  101C               	iorwf	___fldiv@rem+1,w,c
  1733  007656  101D               	iorwf	___fldiv@rem+2,w,c
  1734  007658  101E               	iorwf	___fldiv@rem+3,w,c
  1735  00765A  B4D8               	btfsc	status,2,c
  1736  00765C  D011               	goto	l1889
  1737  00765E  8022               	bsf	___fldiv@grs,0,c
  1738  007660  D00F               	goto	l1889
  1739  007662                     l1883:
  1740  007662  90D8               	bcf	status,0,c
  1741  007664  360F               	rlcf	___fldiv@b,f,c
  1742  007666  3610               	rlcf	___fldiv@b+1,f,c
  1743  007668  3611               	rlcf	___fldiv@b+2,f,c
  1744  00766A  3612               	rlcf	___fldiv@b+3,f,c
  1745  00766C  BE25               	btfsc	___fldiv@grs+3,7,c
  1746  00766E  800F               	bsf	___fldiv@b,0,c
  1747  007670  90D8               	bcf	status,0,c
  1748  007672  3622               	rlcf	___fldiv@grs,f,c
  1749  007674  3623               	rlcf	___fldiv@grs+1,f,c
  1750  007676  3624               	rlcf	___fldiv@grs+2,f,c
  1751  007678  3625               	rlcf	___fldiv@grs+3,f,c
  1752  00767A  0620               	decf	___fldiv@new_exp,f,c
  1753  00767C  A0D8               	btfss	status,0,c
  1754  00767E  0621               	decf	___fldiv@new_exp+1,f,c
  1755  007680                     l1889:
  1756  007680  AE11               	btfss	___fldiv@b+2,7,c
  1757  007682  D7EF               	goto	l1883
  1758  007684  0E00               	movlw	0
  1759  007686  6E27               	movwf	___fldiv@aexp,c
  1760  007688  AE25               	btfss	___fldiv@grs+3,7,c
  1761  00768A  D017               	goto	l679
  1762  00768C  0EFF               	movlw	255
  1763  00768E  1422               	andwf	___fldiv@grs,w,c
  1764  007690  6E17               	movwf	??___fldiv& (0+255),c
  1765  007692  0EFF               	movlw	255
  1766  007694  1423               	andwf	___fldiv@grs+1,w,c
  1767  007696  6E18               	movwf	(??___fldiv+1)& (0+255),c
  1768  007698  0EFF               	movlw	255
  1769  00769A  1424               	andwf	___fldiv@grs+2,w,c
  1770  00769C  6E19               	movwf	(??___fldiv+2)& (0+255),c
  1771  00769E  0E7F               	movlw	127
  1772  0076A0  1425               	andwf	___fldiv@grs+3,w,c
  1773  0076A2  6E1A               	movwf	(??___fldiv+3)& (0+255),c
  1774  0076A4  5017               	movf	??___fldiv,w,c
  1775  0076A6  1018               	iorwf	??___fldiv+1,w,c
  1776  0076A8  1019               	iorwf	??___fldiv+2,w,c
  1777  0076AA  101A               	iorwf	??___fldiv+3,w,c
  1778  0076AC  B4D8               	btfsc	status,2,c
  1779  0076AE  D003               	goto	l680
  1780  0076B0                     u1880:
  1781  0076B0  0E01               	movlw	1
  1782  0076B2  6E27               	movwf	___fldiv@aexp,c
  1783  0076B4  D002               	goto	l679
  1784  0076B6                     l680:
  1785  0076B6  B00F               	btfsc	___fldiv@b,0,c
  1786  0076B8  D7FB               	goto	u1880
  1787  0076BA                     l679:
  1788  0076BA  5027               	movf	___fldiv@aexp,w,c
  1789  0076BC  B4D8               	btfsc	status,2,c
  1790  0076BE  D01F               	goto	l1909
  1791  0076C0  0E01               	movlw	1
  1792  0076C2  260F               	addwf	___fldiv@b,f,c
  1793  0076C4  0E00               	movlw	0
  1794  0076C6  2210               	addwfc	___fldiv@b+1,f,c
  1795  0076C8  2211               	addwfc	___fldiv@b+2,f,c
  1796  0076CA  2212               	addwfc	___fldiv@b+3,f,c
  1797  0076CC  A012               	btfss	___fldiv@b+3,0,c
  1798  0076CE  D017               	goto	l1909
  1799  0076D0  C00F  F017         	movff	___fldiv@b,??___fldiv
  1800  0076D4  C010  F018         	movff	___fldiv@b+1,??___fldiv+1
  1801  0076D8  C011  F019         	movff	___fldiv@b+2,??___fldiv+2
  1802  0076DC  C012  F01A         	movff	___fldiv@b+3,??___fldiv+3
  1803  0076E0  341A               	rlcf	??___fldiv+3,w,c
  1804  0076E2  321A               	rrcf	??___fldiv+3,f,c
  1805  0076E4  3219               	rrcf	??___fldiv+2,f,c
  1806  0076E6  3218               	rrcf	??___fldiv+1,f,c
  1807  0076E8  3217               	rrcf	??___fldiv,f,c
  1808  0076EA  C017  F00F         	movff	??___fldiv,___fldiv@b
  1809  0076EE  C018  F010         	movff	??___fldiv+1,___fldiv@b+1
  1810  0076F2  C019  F011         	movff	??___fldiv+2,___fldiv@b+2
  1811  0076F6  C01A  F012         	movff	??___fldiv+3,___fldiv@b+3
  1812  0076FA  4A20               	infsnz	___fldiv@new_exp,f,c
  1813  0076FC  2A21               	incf	___fldiv@new_exp+1,f,c
  1814  0076FE                     l1909:
  1815  0076FE  BE21               	btfsc	___fldiv@new_exp+1,7,c
  1816  007700  D010               	goto	l1913
  1817  007702  5021               	movf	___fldiv@new_exp+1,w,c
  1818  007704  E103               	bnz	u1920
  1819  007706  2820               	incf	___fldiv@new_exp,w,c
  1820  007708  A0D8               	btfss	status,0,c
  1821  00770A  D00B               	goto	l1913
  1822  00770C                     u1920:
  1823  00770C  0E00               	movlw	0
  1824  00770E  6E21               	movwf	___fldiv@new_exp+1,c
  1825  007710  6820               	setf	___fldiv@new_exp,c
  1826  007712  0E00               	movlw	0
  1827  007714  6E0F               	movwf	___fldiv@b,c
  1828  007716  0E00               	movlw	0
  1829  007718  6E10               	movwf	___fldiv@b+1,c
  1830  00771A  0E00               	movlw	0
  1831  00771C  6E11               	movwf	___fldiv@b+2,c
  1832  00771E  0E00               	movlw	0
  1833  007720  6E12               	movwf	___fldiv@b+3,c
  1834  007722                     l1913:
  1835  007722  BE21               	btfsc	___fldiv@new_exp+1,7,c
  1836  007724  D005               	goto	u1930
  1837  007726  5021               	movf	___fldiv@new_exp+1,w,c
  1838  007728  E111               	bnz	l1917
  1839  00772A  0420               	decf	___fldiv@new_exp,w,c
  1840  00772C  B0D8               	btfsc	status,0,c
  1841  00772E  D00E               	goto	l1917
  1842  007730                     u1930:
  1843  007730  0E00               	movlw	0
  1844  007732  6E21               	movwf	___fldiv@new_exp+1,c
  1845  007734  0E00               	movlw	0
  1846  007736  6E20               	movwf	___fldiv@new_exp,c
  1847  007738  0E00               	movlw	0
  1848  00773A  6E0F               	movwf	___fldiv@b,c
  1849  00773C  0E00               	movlw	0
  1850  00773E  6E10               	movwf	___fldiv@b+1,c
  1851  007740  0E00               	movlw	0
  1852  007742  6E11               	movwf	___fldiv@b+2,c
  1853  007744  0E00               	movlw	0
  1854  007746  6E12               	movwf	___fldiv@b+3,c
  1855  007748  0E00               	movlw	0
  1856  00774A  6E1F               	movwf	___fldiv@sign,c
  1857  00774C                     l1917:
  1858  00774C  C020  F026         	movff	___fldiv@new_exp,___fldiv@bexp
  1859  007750  A026               	btfss	___fldiv@bexp,0,c
  1860  007752  D002               	goto	l1923
  1861  007754  8E11               	bsf	___fldiv@b+2,7,c
  1862  007756  D001               	goto	l1925
  1863  007758                     l1923:
  1864  007758  9E11               	bcf	___fldiv@b+2,7,c
  1865  00775A                     l1925:
  1866  00775A  90D8               	bcf	status,0,c
  1867  00775C  3026               	rrcf	___fldiv@bexp,w,c
  1868  00775E  6E12               	movwf	___fldiv@b+3,c
  1869  007760  D70E               	goto	l1839
  1870  007762                     __end_of___fldiv:
  1871                           	opt callstack 0
  1872                           
  1873 ;; *************** function ___fladd *****************
  1874 ;; Defined at:
  1875 ;;		line 10 in file "C:\Program Files (x86)\Microchip\xc8\v2.05\pic\sources\c90\common\sprcadd.c"
  1876 ;; Parameters:    Size  Location     Type
  1877 ;;  b               4   64[COMRAM] unsigned char 
  1878 ;;  a               4   68[COMRAM] unsigned char 
  1879 ;; Auto vars:     Size  Location     Type
  1880 ;;  grs             1   79[COMRAM] unsigned char 
  1881 ;;  bexp            1   78[COMRAM] unsigned char 
  1882 ;;  aexp            1   77[COMRAM] unsigned char 
  1883 ;;  signs           1   76[COMRAM] unsigned char 
  1884 ;; Return value:  Size  Location     Type
  1885 ;;                  4   64[COMRAM] unsigned char 
  1886 ;; Registers used:
  1887 ;;		wreg, status,2, status,0
  1888 ;; Tracked objects:
  1889 ;;		On entry : 0/0
  1890 ;;		On exit  : 0/0
  1891 ;;		Unchanged: 0/0
  1892 ;; Data sizes:     COMRAM   BANK0   BANK1   BANK2   BANK3   BANK4   BANK5
  1893 ;;      Params:         8       0       0       0       0       0       0
  1894 ;;      Locals:         4       0       0       0       0       0       0
  1895 ;;      Temps:          4       0       0       0       0       0       0
  1896 ;;      Totals:        16       0       0       0       0       0       0
  1897 ;;Total ram usage:       16 bytes
  1898 ;; Hardware stack levels used:    1
  1899 ;; This function calls:
  1900 ;;		Nothing
  1901 ;; This function is called by:
  1902 ;;		_servoRun
  1903 ;; This function uses a non-reentrant model
  1904 ;;
  1905                           
  1906                           	psect	text7
  1907  007762                     __ptext7:
  1908                           	opt callstack 0
  1909  007762                     ___fladd:
  1910                           	opt callstack 29
  1911                           
  1912                           ;incstack = 0
  1913  007762  5044               	movf	___fladd@b+3,w,c
  1914  007764  0B80               	andlw	128
  1915  007766  6E4D               	movwf	___fladd@signs,c
  1916  007768  5044               	movf	___fladd@b+3,w,c
  1917  00776A  2444               	addwf	___fladd@b+3,w,c
  1918  00776C  6E4F               	movwf	___fladd@bexp,c
  1919  00776E  BE43               	btfsc	___fladd@b+2,7,c
  1920  007770  804F               	bsf	___fladd@bexp,0,c
  1921  007772  504F               	movf	___fladd@bexp,w,c
  1922  007774  B4D8               	btfsc	status,2,c
  1923  007776  D00D               	goto	l1609
  1924  007778  284F               	incf	___fladd@bexp,w,c
  1925  00777A  A4D8               	btfss	status,2,c
  1926  00777C  D008               	goto	l1605
  1927  00777E  0E00               	movlw	0
  1928  007780  6E41               	movwf	___fladd@b,c
  1929  007782  0E00               	movlw	0
  1930  007784  6E42               	movwf	___fladd@b+1,c
  1931  007786  0E00               	movlw	0
  1932  007788  6E43               	movwf	___fladd@b+2,c
  1933  00778A  0E00               	movlw	0
  1934  00778C  6E44               	movwf	___fladd@b+3,c
  1935  00778E                     l1605:
  1936  00778E  8E43               	bsf	___fladd@b+2,7,c
  1937  007790  D006               	goto	L4
  1938  007792                     l1609:
  1939  007792  0E00               	movlw	0
  1940  007794  6E41               	movwf	___fladd@b,c
  1941  007796  0E00               	movlw	0
  1942  007798  6E42               	movwf	___fladd@b+1,c
  1943  00779A  0E00               	movlw	0
  1944  00779C  6E43               	movwf	___fladd@b+2,c
  1945  00779E                     L4:
  1946  00779E  0E00               	movlw	0
  1947  0077A0  6E44               	movwf	___fladd@b+3,c
  1948  0077A2  5048               	movf	___fladd@a+3,w,c
  1949  0077A4  0B80               	andlw	128
  1950  0077A6  6E4E               	movwf	___fladd@aexp,c
  1951  0077A8  504D               	movf	___fladd@signs,w,c
  1952  0077AA  184E               	xorwf	___fladd@aexp,w,c
  1953  0077AC  A4D8               	btfss	status,2,c
  1954  0077AE  8C4D               	bsf	___fladd@signs,6,c
  1955  0077B0  5048               	movf	___fladd@a+3,w,c
  1956  0077B2  2448               	addwf	___fladd@a+3,w,c
  1957  0077B4  6E4E               	movwf	___fladd@aexp,c
  1958  0077B6  BE47               	btfsc	___fladd@a+2,7,c
  1959  0077B8  804E               	bsf	___fladd@aexp,0,c
  1960  0077BA  504E               	movf	___fladd@aexp,w,c
  1961  0077BC  B4D8               	btfsc	status,2,c
  1962  0077BE  D00D               	goto	l1633
  1963  0077C0  284E               	incf	___fladd@aexp,w,c
  1964  0077C2  A4D8               	btfss	status,2,c
  1965  0077C4  D008               	goto	l1629
  1966  0077C6  0E00               	movlw	0
  1967  0077C8  6E45               	movwf	___fladd@a,c
  1968  0077CA  0E00               	movlw	0
  1969  0077CC  6E46               	movwf	___fladd@a+1,c
  1970  0077CE  0E00               	movlw	0
  1971  0077D0  6E47               	movwf	___fladd@a+2,c
  1972  0077D2  0E00               	movlw	0
  1973  0077D4  6E48               	movwf	___fladd@a+3,c
  1974  0077D6                     l1629:
  1975  0077D6  8E47               	bsf	___fladd@a+2,7,c
  1976  0077D8  D006               	goto	L5
  1977  0077DA                     l1633:
  1978  0077DA  0E00               	movlw	0
  1979  0077DC  6E45               	movwf	___fladd@a,c
  1980  0077DE  0E00               	movlw	0
  1981  0077E0  6E46               	movwf	___fladd@a+1,c
  1982  0077E2  0E00               	movlw	0
  1983  0077E4  6E47               	movwf	___fladd@a+2,c
  1984  0077E6                     L5:
  1985  0077E6  0E00               	movlw	0
  1986  0077E8  6E48               	movwf	___fladd@a+3,c
  1987  0077EA  504F               	movf	___fladd@bexp,w,c
  1988  0077EC  5C4E               	subwf	___fladd@aexp,w,c
  1989  0077EE  B0D8               	btfsc	status,0,c
  1990  0077F0  D022               	goto	l1671
  1991  0077F2  AC4D               	btfss	___fladd@signs,6,c
  1992  0077F4  D002               	goto	l1641
  1993  0077F6  0E80               	movlw	128
  1994  0077F8  1A4D               	xorwf	___fladd@signs,f,c
  1995  0077FA                     l1641:
  1996  0077FA  C04F  F050         	movff	___fladd@bexp,___fladd@grs
  1997  0077FE  C04E  F04F         	movff	___fladd@aexp,___fladd@bexp
  1998  007802  C050  F04E         	movff	___fladd@grs,___fladd@aexp
  1999  007806  C041  F050         	movff	___fladd@b,___fladd@grs
  2000  00780A  C045  F041         	movff	___fladd@a,___fladd@b
  2001  00780E  C050  F045         	movff	___fladd@grs,___fladd@a
  2002  007812  C042  F050         	movff	___fladd@b+1,___fladd@grs
  2003  007816  C046  F042         	movff	___fladd@a+1,___fladd@b+1
  2004  00781A  C050  F046         	movff	___fladd@grs,___fladd@a+1
  2005  00781E  C043  F050         	movff	___fladd@b+2,___fladd@grs
  2006  007822  C047  F043         	movff	___fladd@a+2,___fladd@b+2
  2007  007826  C050  F047         	movff	___fladd@grs,___fladd@a+2
  2008  00782A  C044  F050         	movff	___fladd@b+3,___fladd@grs
  2009  00782E  C048  F044         	movff	___fladd@a+3,___fladd@b+3
  2010  007832  C050  F048         	movff	___fladd@grs,___fladd@a+3
  2011  007836                     l1671:
  2012  007836  0E00               	movlw	0
  2013  007838  6E50               	movwf	___fladd@grs,c
  2014  00783A  504F               	movf	___fladd@bexp,w,c
  2015  00783C  C04E  F049         	movff	___fladd@aexp,??___fladd
  2016  007840  6A4A               	clrf	(??___fladd+1)& (0+255),c
  2017  007842  5E49               	subwf	??___fladd,f,c
  2018  007844  0E00               	movlw	0
  2019  007846  5A4A               	subwfb	??___fladd+1,f,c
  2020  007848  BE4A               	btfsc	??___fladd+1,7,c
  2021  00784A  D02C               	goto	l613
  2022  00784C  504A               	movf	??___fladd+1,w,c
  2023  00784E  E104               	bnz	u1420
  2024  007850  0E1A               	movlw	26
  2025  007852  5C49               	subwf	??___fladd,w,c
  2026  007854  A0D8               	btfss	status,0,c
  2027  007856  D026               	goto	l613
  2028  007858                     u1420:
  2029  007858  5041               	movf	___fladd@b,w,c
  2030  00785A  1042               	iorwf	___fladd@b+1,w,c
  2031  00785C  1043               	iorwf	___fladd@b+2,w,c
  2032  00785E  1044               	iorwf	___fladd@b+3,w,c
  2033  007860  B4D8               	btfsc	status,2,c
  2034  007862  D002               	goto	u1430
  2035  007864  0E01               	movlw	1
  2036  007866  D001               	goto	u1440
  2037  007868                     u1430:
  2038  007868  0E00               	movlw	0
  2039  00786A                     u1440:
  2040  00786A  6E50               	movwf	___fladd@grs,c
  2041  00786C  0E00               	movlw	0
  2042  00786E  6E41               	movwf	___fladd@b,c
  2043  007870  0E00               	movlw	0
  2044  007872  6E42               	movwf	___fladd@b+1,c
  2045  007874  0E00               	movlw	0
  2046  007876  6E43               	movwf	___fladd@b+2,c
  2047  007878  0E00               	movlw	0
  2048  00787A  6E44               	movwf	___fladd@b+3,c
  2049  00787C  C04E  F04F         	movff	___fladd@aexp,___fladd@bexp
  2050  007880  D015               	goto	u1470
  2051  007882                     l614:
  2052  007882  A050               	btfss	___fladd@grs,0,c
  2053  007884  D005               	goto	l1683
  2054  007886  90D8               	bcf	status,0,c
  2055  007888  3050               	rrcf	___fladd@grs,w,c
  2056  00788A  0901               	iorlw	1
  2057  00788C  6E50               	movwf	___fladd@grs,c
  2058  00788E  D002               	goto	l1685
  2059  007890                     l1683:
  2060  007890  90D8               	bcf	status,0,c
  2061  007892  3250               	rrcf	___fladd@grs,f,c
  2062  007894                     l1685:
  2063  007894  B041               	btfsc	___fladd@b,0,c
  2064  007896  8E50               	bsf	___fladd@grs,7,c
  2065  007898  3444               	rlcf	___fladd@b+3,w,c
  2066  00789A  3244               	rrcf	___fladd@b+3,f,c
  2067  00789C  3243               	rrcf	___fladd@b+2,f,c
  2068  00789E  3242               	rrcf	___fladd@b+1,f,c
  2069  0078A0  3241               	rrcf	___fladd@b,f,c
  2070  0078A2  2A4F               	incf	___fladd@bexp,f,c
  2071  0078A4                     l613:
  2072  0078A4  504E               	movf	___fladd@aexp,w,c
  2073  0078A6  5C4F               	subwf	___fladd@bexp,w,c
  2074  0078A8  A0D8               	btfss	status,0,c
  2075  0078AA  D7EB               	goto	l614
  2076  0078AC                     u1470:
  2077  0078AC  BC4D               	btfsc	___fladd@signs,6,c
  2078  0078AE  D028               	goto	l1717
  2079  0078B0  504F               	movf	___fladd@bexp,w,c
  2080  0078B2  A4D8               	btfss	status,2,c
  2081  0078B4  D009               	goto	l1699
  2082  0078B6  0E00               	movlw	0
  2083  0078B8  6E41               	movwf	?___fladd,c
  2084  0078BA  0E00               	movlw	0
  2085  0078BC  6E42               	movwf	?___fladd+1,c
  2086  0078BE  0E00               	movlw	0
  2087  0078C0  6E43               	movwf	?___fladd+2,c
  2088  0078C2  0E00               	movlw	0
  2089  0078C4  6E44               	movwf	?___fladd+3,c
  2090  0078C6  0012               	return	
  2091  0078C8                     l1699:
  2092  0078C8  5045               	movf	___fladd@a,w,c
  2093  0078CA  2641               	addwf	___fladd@b,f,c
  2094  0078CC  5046               	movf	___fladd@a+1,w,c
  2095  0078CE  2242               	addwfc	___fladd@b+1,f,c
  2096  0078D0  5047               	movf	___fladd@a+2,w,c
  2097  0078D2  2243               	addwfc	___fladd@b+2,f,c
  2098  0078D4  5048               	movf	___fladd@a+3,w,c
  2099  0078D6  2244               	addwfc	___fladd@b+3,f,c
  2100  0078D8  A044               	btfss	___fladd@b+3,0,c
  2101  0078DA  D071               	goto	u1600
  2102  0078DC  A050               	btfss	___fladd@grs,0,c
  2103  0078DE  D005               	goto	l1707
  2104  0078E0  90D8               	bcf	status,0,c
  2105  0078E2  3050               	rrcf	___fladd@grs,w,c
  2106  0078E4  0901               	iorlw	1
  2107  0078E6  6E50               	movwf	___fladd@grs,c
  2108  0078E8  D002               	goto	l1709
  2109  0078EA                     l1707:
  2110  0078EA  90D8               	bcf	status,0,c
  2111  0078EC  3250               	rrcf	___fladd@grs,f,c
  2112  0078EE                     l1709:
  2113  0078EE  B041               	btfsc	___fladd@b,0,c
  2114  0078F0  8E50               	bsf	___fladd@grs,7,c
  2115  0078F2  3444               	rlcf	___fladd@b+3,w,c
  2116  0078F4  3244               	rrcf	___fladd@b+3,f,c
  2117  0078F6  3243               	rrcf	___fladd@b+2,f,c
  2118  0078F8  3242               	rrcf	___fladd@b+1,f,c
  2119  0078FA  3241               	rrcf	___fladd@b,f,c
  2120  0078FC  2A4F               	incf	___fladd@bexp,f,c
  2121  0078FE  D05F               	goto	u1600
  2122  007900                     l1717:
  2123  007900  5045               	movf	___fladd@a,w,c
  2124  007902  5C41               	subwf	___fladd@b,w,c
  2125  007904  5046               	movf	___fladd@a+1,w,c
  2126  007906  5842               	subwfb	___fladd@b+1,w,c
  2127  007908  5047               	movf	___fladd@a+2,w,c
  2128  00790A  5843               	subwfb	___fladd@b+2,w,c
  2129  00790C  5044               	movf	___fladd@b+3,w,c
  2130  00790E  0A80               	xorlw	128
  2131  007910  6E49               	movwf	??___fladd& (0+255),c
  2132  007912  5048               	movf	___fladd@a+3,w,c
  2133  007914  0A80               	xorlw	128
  2134  007916  5849               	subwfb	??___fladd& (0+255),w,c
  2135  007918  B0D8               	btfsc	status,0,c
  2136  00791A  D025               	goto	l1727
  2137  00791C  5041               	movf	___fladd@b,w,c
  2138  00791E  5C45               	subwf	___fladd@a,w,c
  2139  007920  6E49               	movwf	??___fladd& (0+255),c
  2140  007922  5042               	movf	___fladd@b+1,w,c
  2141  007924  5846               	subwfb	___fladd@a+1,w,c
  2142  007926  6E4A               	movwf	(??___fladd+1)& (0+255),c
  2143  007928  5043               	movf	___fladd@b+2,w,c
  2144  00792A  5847               	subwfb	___fladd@a+2,w,c
  2145  00792C  6E4B               	movwf	(??___fladd+2)& (0+255),c
  2146  00792E  5044               	movf	___fladd@b+3,w,c
  2147  007930  5848               	subwfb	___fladd@a+3,w,c
  2148  007932  6E4C               	movwf	(??___fladd+3)& (0+255),c
  2149  007934  0EFF               	movlw	255
  2150  007936  2449               	addwf	??___fladd,w,c
  2151  007938  6E41               	movwf	___fladd@b,c
  2152  00793A  0EFF               	movlw	255
  2153  00793C  204A               	addwfc	??___fladd+1,w,c
  2154  00793E  6E42               	movwf	___fladd@b+1,c
  2155  007940  0EFF               	movlw	255
  2156  007942  204B               	addwfc	??___fladd+2,w,c
  2157  007944  6E43               	movwf	___fladd@b+2,c
  2158  007946  0EFF               	movlw	255
  2159  007948  204C               	addwfc	??___fladd+3,w,c
  2160  00794A  6E44               	movwf	___fladd@b+3,c
  2161  00794C  0E80               	movlw	128
  2162  00794E  1A4D               	xorwf	___fladd@signs,f,c
  2163  007950  6C50               	negf	___fladd@grs,c
  2164  007952  5050               	movf	___fladd@grs,w,c
  2165  007954  A4D8               	btfss	status,2,c
  2166  007956  D00F               	goto	l629
  2167  007958  0E01               	movlw	1
  2168  00795A  2641               	addwf	___fladd@b,f,c
  2169  00795C  0E00               	movlw	0
  2170  00795E  2242               	addwfc	___fladd@b+1,f,c
  2171  007960  2243               	addwfc	___fladd@b+2,f,c
  2172  007962  2244               	addwfc	___fladd@b+3,f,c
  2173  007964  D008               	goto	l629
  2174  007966                     l1727:
  2175  007966  5045               	movf	___fladd@a,w,c
  2176  007968  5E41               	subwf	___fladd@b,f,c
  2177  00796A  5046               	movf	___fladd@a+1,w,c
  2178  00796C  5A42               	subwfb	___fladd@b+1,f,c
  2179  00796E  5047               	movf	___fladd@a+2,w,c
  2180  007970  5A43               	subwfb	___fladd@b+2,f,c
  2181  007972  5048               	movf	___fladd@a+3,w,c
  2182  007974  5A44               	subwfb	___fladd@b+3,f,c
  2183  007976                     l629:
  2184  007976  5041               	movf	___fladd@b,w,c
  2185  007978  1042               	iorwf	___fladd@b+1,w,c
  2186  00797A  1043               	iorwf	___fladd@b+2,w,c
  2187  00797C  1044               	iorwf	___fladd@b+3,w,c
  2188  00797E  A4D8               	btfss	status,2,c
  2189  007980  D01C               	goto	l1751
  2190  007982  5050               	movf	___fladd@grs,w,c
  2191  007984  A4D8               	btfss	status,2,c
  2192  007986  D019               	goto	l1751
  2193  007988  0E00               	movlw	0
  2194  00798A  6E41               	movwf	?___fladd,c
  2195  00798C  0E00               	movlw	0
  2196  00798E  6E42               	movwf	?___fladd+1,c
  2197  007990  0E00               	movlw	0
  2198  007992  6E43               	movwf	?___fladd+2,c
  2199  007994  0E00               	movlw	0
  2200  007996  6E44               	movwf	?___fladd+3,c
  2201  007998  0012               	return	
  2202  00799A                     l1735:
  2203  00799A  90D8               	bcf	status,0,c
  2204  00799C  3641               	rlcf	___fladd@b,f,c
  2205  00799E  3642               	rlcf	___fladd@b+1,f,c
  2206  0079A0  3643               	rlcf	___fladd@b+2,f,c
  2207  0079A2  3644               	rlcf	___fladd@b+3,f,c
  2208  0079A4  BE50               	btfsc	___fladd@grs,7,c
  2209  0079A6  8041               	bsf	___fladd@b,0,c
  2210  0079A8  A050               	btfss	___fladd@grs,0,c
  2211  0079AA  D002               	goto	l1745
  2212  0079AC  80D8               	bsf	status,0,c
  2213  0079AE  D001               	goto	L6
  2214  0079B0                     l1745:
  2215  0079B0  90D8               	bcf	status,0,c
  2216  0079B2                     L6:
  2217  0079B2  3650               	rlcf	___fladd@grs,f,c
  2218  0079B4  504F               	movf	___fladd@bexp,w,c
  2219  0079B6  A4D8               	btfss	status,2,c
  2220  0079B8  064F               	decf	___fladd@bexp,f,c
  2221  0079BA                     l1751:
  2222  0079BA  AE43               	btfss	___fladd@b+2,7,c
  2223  0079BC  D7EE               	goto	l1735
  2224  0079BE                     u1600:
  2225  0079BE  0E00               	movlw	0
  2226  0079C0  6E4E               	movwf	___fladd@aexp,c
  2227  0079C2  AE50               	btfss	___fladd@grs,7,c
  2228  0079C4  D00B               	goto	l638
  2229  0079C6  C050  F049         	movff	___fladd@grs,??___fladd
  2230  0079CA  0E7F               	movlw	127
  2231  0079CC  1649               	andwf	??___fladd,f,c
  2232  0079CE  B4D8               	btfsc	status,2,c
  2233  0079D0  D003               	goto	l639
  2234  0079D2                     u1620:
  2235  0079D2  0E01               	movlw	1
  2236  0079D4  6E4E               	movwf	___fladd@aexp,c
  2237  0079D6  D002               	goto	l638
  2238  0079D8                     l639:
  2239  0079D8  B041               	btfsc	___fladd@b,0,c
  2240  0079DA  D7FB               	goto	u1620
  2241  0079DC                     l638:
  2242  0079DC  504E               	movf	___fladd@aexp,w,c
  2243  0079DE  B4D8               	btfsc	status,2,c
  2244  0079E0  D020               	goto	l1771
  2245  0079E2  0E01               	movlw	1
  2246  0079E4  2641               	addwf	___fladd@b,f,c
  2247  0079E6  0E00               	movlw	0
  2248  0079E8  2242               	addwfc	___fladd@b+1,f,c
  2249  0079EA  2243               	addwfc	___fladd@b+2,f,c
  2250  0079EC  2244               	addwfc	___fladd@b+3,f,c
  2251  0079EE  A044               	btfss	___fladd@b+3,0,c
  2252  0079F0  D018               	goto	l1771
  2253  0079F2  C041  F049         	movff	___fladd@b,??___fladd
  2254  0079F6  C042  F04A         	movff	___fladd@b+1,??___fladd+1
  2255  0079FA  C043  F04B         	movff	___fladd@b+2,??___fladd+2
  2256  0079FE  C044  F04C         	movff	___fladd@b+3,??___fladd+3
  2257  007A02  344C               	rlcf	??___fladd+3,w,c
  2258  007A04  324C               	rrcf	??___fladd+3,f,c
  2259  007A06  324B               	rrcf	??___fladd+2,f,c
  2260  007A08  324A               	rrcf	??___fladd+1,f,c
  2261  007A0A  3249               	rrcf	??___fladd,f,c
  2262  007A0C  C049  F041         	movff	??___fladd,___fladd@b
  2263  007A10  C04A  F042         	movff	??___fladd+1,___fladd@b+1
  2264  007A14  C04B  F043         	movff	??___fladd+2,___fladd@b+2
  2265  007A18  C04C  F044         	movff	??___fladd+3,___fladd@b+3
  2266  007A1C  284F               	incf	___fladd@bexp,w,c
  2267  007A1E  A4D8               	btfss	status,2,c
  2268  007A20  2A4F               	incf	___fladd@bexp,f,c
  2269  007A22                     l1771:
  2270  007A22  284F               	incf	___fladd@bexp,w,c
  2271  007A24  B4D8               	btfsc	status,2,c
  2272  007A26  D003               	goto	u1680
  2273  007A28  504F               	movf	___fladd@bexp,w,c
  2274  007A2A  A4D8               	btfss	status,2,c
  2275  007A2C  D00D               	goto	l1779
  2276  007A2E                     u1680:
  2277  007A2E  0E00               	movlw	0
  2278  007A30  6E41               	movwf	___fladd@b,c
  2279  007A32  0E00               	movlw	0
  2280  007A34  6E42               	movwf	___fladd@b+1,c
  2281  007A36  0E00               	movlw	0
  2282  007A38  6E43               	movwf	___fladd@b+2,c
  2283  007A3A  0E00               	movlw	0
  2284  007A3C  6E44               	movwf	___fladd@b+3,c
  2285  007A3E  504F               	movf	___fladd@bexp,w,c
  2286  007A40  A4D8               	btfss	status,2,c
  2287  007A42  D002               	goto	l1779
  2288  007A44  0E00               	movlw	0
  2289  007A46  6E4D               	movwf	___fladd@signs,c
  2290  007A48                     l1779:
  2291  007A48  A04F               	btfss	___fladd@bexp,0,c
  2292  007A4A  D002               	goto	l1783
  2293  007A4C  8E43               	bsf	___fladd@b+2,7,c
  2294  007A4E  D001               	goto	l1785
  2295  007A50                     l1783:
  2296  007A50  9E43               	bcf	___fladd@b+2,7,c
  2297  007A52                     l1785:
  2298  007A52  90D8               	bcf	status,0,c
  2299  007A54  304F               	rrcf	___fladd@bexp,w,c
  2300  007A56  6E44               	movwf	___fladd@b+3,c
  2301  007A58  BE4D               	btfsc	___fladd@signs,7,c
  2302  007A5A  8E44               	bsf	___fladd@b+3,7,c
  2303  007A5C  C041  F041         	movff	___fladd@b,?___fladd
  2304  007A60  C042  F042         	movff	___fladd@b+1,?___fladd+1
  2305  007A64  C043  F043         	movff	___fladd@b+2,?___fladd+2
  2306  007A68  C044  F044         	movff	___fladd@b+3,?___fladd+3
  2307  007A6C  0012               	return		;funcret
  2308  007A6E                     __end_of___fladd:
  2309                           	opt callstack 0
  2310                           
  2311 ;; *************** function _initialise *****************
  2312 ;; Defined at:
  2313 ;;		line 65 in file "BluetoothReceiveServoPWM.c"
  2314 ;; Parameters:    Size  Location     Type
  2315 ;;		None
  2316 ;; Auto vars:     Size  Location     Type
  2317 ;;		None
  2318 ;; Return value:  Size  Location     Type
  2319 ;;                  1    wreg      void 
  2320 ;; Registers used:
  2321 ;;		wreg, status,2, status,0, cstack
  2322 ;; Tracked objects:
  2323 ;;		On entry : 0/0
  2324 ;;		On exit  : 0/0
  2325 ;;		Unchanged: 0/0
  2326 ;; Data sizes:     COMRAM   BANK0   BANK1   BANK2   BANK3   BANK4   BANK5
  2327 ;;      Params:         0       0       0       0       0       0       0
  2328 ;;      Locals:         0       0       0       0       0       0       0
  2329 ;;      Temps:          0       0       0       0       0       0       0
  2330 ;;      Totals:         0       0       0       0       0       0       0
  2331 ;;Total ram usage:        0 bytes
  2332 ;; Hardware stack levels used:    1
  2333 ;; Hardware stack levels required when called:    2
  2334 ;; This function calls:
  2335 ;;		_UARTInitialise
  2336 ;; This function is called by:
  2337 ;;		_main
  2338 ;; This function uses a non-reentrant model
  2339 ;;
  2340                           
  2341                           	psect	text8
  2342  006F64                     __ptext8:
  2343                           	opt callstack 0
  2344  006F64                     _initialise:
  2345                           	opt callstack 28
  2346                           
  2347                           ;BluetoothReceiveServoPWM.c: 67: IRCF2 = 1;
  2348                           
  2349                           ;incstack = 0
  2350  006F64  8CD3               	bsf	4051,6,c	;volatile
  2351                           
  2352                           ;BluetoothReceiveServoPWM.c: 68: IRCF1 = 1;
  2353  006F66  8AD3               	bsf	4051,5,c	;volatile
  2354                           
  2355                           ;BluetoothReceiveServoPWM.c: 69: IRCF0 = 1;
  2356  006F68  88D3               	bsf	4051,4,c	;volatile
  2357                           
  2358                           ;BluetoothReceiveServoPWM.c: 70: TRISB = 0x00;
  2359  006F6A  0E00               	movlw	0
  2360  006F6C  6E93               	movwf	3987,c	;volatile
  2361                           
  2362                           ;BluetoothReceiveServoPWM.c: 71: UARTInitialise(9600);
  2363  006F6E  0E80               	movlw	128
  2364  006F70  6E0F               	movwf	UARTInitialise@baudrate,c
  2365  006F72  0E25               	movlw	37
  2366  006F74  6E10               	movwf	UARTInitialise@baudrate+1,c
  2367  006F76  0E00               	movlw	0
  2368  006F78  6E11               	movwf	UARTInitialise@baudrate+2,c
  2369  006F7A  0E00               	movlw	0
  2370  006F7C  6E12               	movwf	UARTInitialise@baudrate+3,c
  2371  006F7E  ECA6  F038         	call	_UARTInitialise	;wreg free
  2372                           
  2373                           ;BluetoothReceiveServoPWM.c: 73: T08BIT = 0;
  2374  006F82  9CD5               	bcf	4053,6,c	;volatile
  2375                           
  2376                           ;BluetoothReceiveServoPWM.c: 74: T0CS = 0;
  2377  006F84  9AD5               	bcf	4053,5,c	;volatile
  2378                           
  2379                           ;BluetoothReceiveServoPWM.c: 75: PSA = 1;
  2380  006F86  86D5               	bsf	4053,3,c	;volatile
  2381                           
  2382                           ;BluetoothReceiveServoPWM.c: 77: RCIE = 1;
  2383  006F88  8A9D               	bsf	3997,5,c	;volatile
  2384                           
  2385                           ;BluetoothReceiveServoPWM.c: 78: GIE = 1;
  2386  006F8A  8EF2               	bsf	4082,7,c	;volatile
  2387  006F8C  0012               	return		;funcret
  2388  006F8E                     __end_of_initialise:
  2389                           	opt callstack 0
  2390                           
  2391 ;; *************** function _UARTInitialise *****************
  2392 ;; Defined at:
  2393 ;;		line 1 in file "uart.h"
  2394 ;; Parameters:    Size  Location     Type
  2395 ;;  baudrate        4   14[COMRAM] const long 
  2396 ;; Auto vars:     Size  Location     Type
  2397 ;;  x               2   26[COMRAM] unsigned int 
  2398 ;; Return value:  Size  Location     Type
  2399 ;;                  1    wreg      unsigned char 
  2400 ;; Registers used:
  2401 ;;		wreg, status,2, status,0, cstack
  2402 ;; Tracked objects:
  2403 ;;		On entry : 0/0
  2404 ;;		On exit  : 0/0
  2405 ;;		Unchanged: 0/0
  2406 ;; Data sizes:     COMRAM   BANK0   BANK1   BANK2   BANK3   BANK4   BANK5
  2407 ;;      Params:         4       0       0       0       0       0       0
  2408 ;;      Locals:         2       0       0       0       0       0       0
  2409 ;;      Temps:          8       0       0       0       0       0       0
  2410 ;;      Totals:        14       0       0       0       0       0       0
  2411 ;;Total ram usage:       14 bytes
  2412 ;; Hardware stack levels used:    1
  2413 ;; Hardware stack levels required when called:    1
  2414 ;; This function calls:
  2415 ;;		___aldiv
  2416 ;; This function is called by:
  2417 ;;		_initialise
  2418 ;; This function uses a non-reentrant model
  2419 ;;
  2420                           
  2421                           	psect	text9
  2422  00714C                     __ptext9:
  2423                           	opt callstack 0
  2424  00714C                     _UARTInitialise:
  2425                           	opt callstack 28
  2426                           
  2427                           ;uart.h: 2: unsigned int x;;uart.h: 3: x = (8000000 - baudrate*64)/(baudrate*64);
  2428                           
  2429                           ;incstack = 0
  2430  00714C  C00F  F013         	movff	UARTInitialise@baudrate,??_UARTInitialise
  2431  007150  C010  F014         	movff	UARTInitialise@baudrate+1,??_UARTInitialise+1
  2432  007154  C011  F015         	movff	UARTInitialise@baudrate+2,??_UARTInitialise+2
  2433  007158  C012  F016         	movff	UARTInitialise@baudrate+3,??_UARTInitialise+3
  2434  00715C  0E06               	movlw	6
  2435  00715E                     u1265:
  2436  00715E  90D8               	bcf	status,0,c
  2437  007160  3613               	rlcf	??_UARTInitialise,f,c
  2438  007162  3614               	rlcf	??_UARTInitialise+1,f,c
  2439  007164  3615               	rlcf	??_UARTInitialise+2,f,c
  2440  007166  3616               	rlcf	??_UARTInitialise+3,f,c
  2441  007168  2EE8               	decfsz	wreg,f,c
  2442  00716A  D7F9               	goto	u1265
  2443  00716C  5013               	movf	??_UARTInitialise,w,c
  2444  00716E  0800               	sublw	0
  2445  007170  6E01               	movwf	___aldiv@dividend,c
  2446  007172  0E12               	movlw	18
  2447  007174  5414               	subfwb	??_UARTInitialise+1,w,c
  2448  007176  6E02               	movwf	___aldiv@dividend+1,c
  2449  007178  0E7A               	movlw	122
  2450  00717A  5415               	subfwb	??_UARTInitialise+2,w,c
  2451  00717C  6E03               	movwf	___aldiv@dividend+2,c
  2452  00717E  0E00               	movlw	0
  2453  007180  5416               	subfwb	??_UARTInitialise+3,w,c
  2454  007182  6E04               	movwf	___aldiv@dividend+3,c
  2455  007184  C00F  F017         	movff	UARTInitialise@baudrate,??_UARTInitialise+4
  2456  007188  C010  F018         	movff	UARTInitialise@baudrate+1,??_UARTInitialise+5
  2457  00718C  C011  F019         	movff	UARTInitialise@baudrate+2,??_UARTInitialise+6
  2458  007190  C012  F01A         	movff	UARTInitialise@baudrate+3,??_UARTInitialise+7
  2459  007194  0E06               	movlw	6
  2460  007196                     u1275:
  2461  007196  90D8               	bcf	status,0,c
  2462  007198  3617               	rlcf	??_UARTInitialise+4,f,c
  2463  00719A  3618               	rlcf	??_UARTInitialise+5,f,c
  2464  00719C  3619               	rlcf	??_UARTInitialise+6,f,c
  2465  00719E  361A               	rlcf	??_UARTInitialise+7,f,c
  2466  0071A0  2EE8               	decfsz	wreg,f,c
  2467  0071A2  D7F9               	goto	u1275
  2468  0071A4  C017  F005         	movff	??_UARTInitialise+4,___aldiv@divisor
  2469  0071A8  C018  F006         	movff	??_UARTInitialise+5,___aldiv@divisor+1
  2470  0071AC  C019  F007         	movff	??_UARTInitialise+6,___aldiv@divisor+2
  2471  0071B0  C01A  F008         	movff	??_UARTInitialise+7,___aldiv@divisor+3
  2472  0071B4  EC40  F038         	call	___aldiv	;wreg free
  2473  0071B8  C001  F01B         	movff	?___aldiv,UARTInitialise@x
  2474  0071BC  C002  F01C         	movff	?___aldiv+1,UARTInitialise@x+1
  2475                           
  2476                           ;uart.h: 4: if(x>255){
  2477  0071C0  041C               	decf	UARTInitialise@x+1,w,c
  2478  0071C2  A0D8               	btfss	status,0,c
  2479  0071C4  D03B               	goto	l1581
  2480                           
  2481                           ;uart.h: 5: x = (8000000 - baudrate*16)/(baudrate*16);
  2482  0071C6  C00F  F013         	movff	UARTInitialise@baudrate,??_UARTInitialise
  2483  0071CA  C010  F014         	movff	UARTInitialise@baudrate+1,??_UARTInitialise+1
  2484  0071CE  C011  F015         	movff	UARTInitialise@baudrate+2,??_UARTInitialise+2
  2485  0071D2  C012  F016         	movff	UARTInitialise@baudrate+3,??_UARTInitialise+3
  2486  0071D6  0E04               	movlw	4
  2487  0071D8                     u1295:
  2488  0071D8  90D8               	bcf	status,0,c
  2489  0071DA  3613               	rlcf	??_UARTInitialise,f,c
  2490  0071DC  3614               	rlcf	??_UARTInitialise+1,f,c
  2491  0071DE  3615               	rlcf	??_UARTInitialise+2,f,c
  2492  0071E0  3616               	rlcf	??_UARTInitialise+3,f,c
  2493  0071E2  2EE8               	decfsz	wreg,f,c
  2494  0071E4  D7F9               	goto	u1295
  2495  0071E6  5013               	movf	??_UARTInitialise,w,c
  2496  0071E8  0800               	sublw	0
  2497  0071EA  6E01               	movwf	___aldiv@dividend,c
  2498  0071EC  0E12               	movlw	18
  2499  0071EE  5414               	subfwb	??_UARTInitialise+1,w,c
  2500  0071F0  6E02               	movwf	___aldiv@dividend+1,c
  2501  0071F2  0E7A               	movlw	122
  2502  0071F4  5415               	subfwb	??_UARTInitialise+2,w,c
  2503  0071F6  6E03               	movwf	___aldiv@dividend+2,c
  2504  0071F8  0E00               	movlw	0
  2505  0071FA  5416               	subfwb	??_UARTInitialise+3,w,c
  2506  0071FC  6E04               	movwf	___aldiv@dividend+3,c
  2507  0071FE  C00F  F017         	movff	UARTInitialise@baudrate,??_UARTInitialise+4
  2508  007202  C010  F018         	movff	UARTInitialise@baudrate+1,??_UARTInitialise+5
  2509  007206  C011  F019         	movff	UARTInitialise@baudrate+2,??_UARTInitialise+6
  2510  00720A  C012  F01A         	movff	UARTInitialise@baudrate+3,??_UARTInitialise+7
  2511  00720E  0E04               	movlw	4
  2512  007210                     u1305:
  2513  007210  90D8               	bcf	status,0,c
  2514  007212  3617               	rlcf	??_UARTInitialise+4,f,c
  2515  007214  3618               	rlcf	??_UARTInitialise+5,f,c
  2516  007216  3619               	rlcf	??_UARTInitialise+6,f,c
  2517  007218  361A               	rlcf	??_UARTInitialise+7,f,c
  2518  00721A  2EE8               	decfsz	wreg,f,c
  2519  00721C  D7F9               	goto	u1305
  2520  00721E  C017  F005         	movff	??_UARTInitialise+4,___aldiv@divisor
  2521  007222  C018  F006         	movff	??_UARTInitialise+5,___aldiv@divisor+1
  2522  007226  C019  F007         	movff	??_UARTInitialise+6,___aldiv@divisor+2
  2523  00722A  C01A  F008         	movff	??_UARTInitialise+7,___aldiv@divisor+3
  2524  00722E  EC40  F038         	call	___aldiv	;wreg free
  2525  007232  C001  F01B         	movff	?___aldiv,UARTInitialise@x
  2526  007236  C002  F01C         	movff	?___aldiv+1,UARTInitialise@x+1
  2527                           
  2528                           ;uart.h: 6: BRGH = 1;
  2529  00723A  84AC               	bsf	4012,2,c	;volatile
  2530  00723C                     l1581:
  2531                           
  2532                           ;uart.h: 7: };uart.h: 8: if(x<256){
  2533  00723C  041C               	decf	UARTInitialise@x+1,w,c
  2534  00723E  B0D8               	btfsc	status,0,c
  2535  007240  0012               	return	
  2536                           
  2537                           ;uart.h: 9: SPBRG = x;
  2538  007242  C01B  FFAF         	movff	UARTInitialise@x,4015	;volatile
  2539                           
  2540                           ;uart.h: 10: SYNC = 0;
  2541  007246  98AC               	bcf	4012,4,c	;volatile
  2542                           
  2543                           ;uart.h: 11: SPEN = 1;
  2544  007248  8EAB               	bsf	4011,7,c	;volatile
  2545                           
  2546                           ;uart.h: 12: TRISC7 = 1;
  2547  00724A  8E94               	bsf	3988,7,c	;volatile
  2548                           
  2549                           ;uart.h: 13: TRISC6 = 1;
  2550  00724C  8C94               	bsf	3988,6,c	;volatile
  2551                           
  2552                           ;uart.h: 14: CREN = 1;
  2553  00724E  88AB               	bsf	4011,4,c	;volatile
  2554                           
  2555                           ;uart.h: 15: TXEN = 1;
  2556  007250  8AAC               	bsf	4012,5,c	;volatile
  2557                           
  2558                           ;uart.h: 16: return 1;;	Return value of _UARTInitialise is never used
  2559  007252  0012               	return		;funcret
  2560  007254                     __end_of_UARTInitialise:
  2561                           	opt callstack 0
  2562                           
  2563 ;; *************** function ___aldiv *****************
  2564 ;; Defined at:
  2565 ;;		line 7 in file "C:\Program Files (x86)\Microchip\xc8\v2.05\pic\sources\c90\common\aldiv.c"
  2566 ;; Parameters:    Size  Location     Type
  2567 ;;  dividend        4    0[COMRAM] long 
  2568 ;;  divisor         4    4[COMRAM] long 
  2569 ;; Auto vars:     Size  Location     Type
  2570 ;;  quotient        4   10[COMRAM] long 
  2571 ;;  sign            1    9[COMRAM] unsigned char 
  2572 ;;  counter         1    8[COMRAM] unsigned char 
  2573 ;; Return value:  Size  Location     Type
  2574 ;;                  4    0[COMRAM] long 
  2575 ;; Registers used:
  2576 ;;		wreg, status,2, status,0
  2577 ;; Tracked objects:
  2578 ;;		On entry : 0/0
  2579 ;;		On exit  : 0/0
  2580 ;;		Unchanged: 0/0
  2581 ;; Data sizes:     COMRAM   BANK0   BANK1   BANK2   BANK3   BANK4   BANK5
  2582 ;;      Params:         8       0       0       0       0       0       0
  2583 ;;      Locals:         6       0       0       0       0       0       0
  2584 ;;      Temps:          0       0       0       0       0       0       0
  2585 ;;      Totals:        14       0       0       0       0       0       0
  2586 ;;Total ram usage:       14 bytes
  2587 ;; Hardware stack levels used:    1
  2588 ;; This function calls:
  2589 ;;		Nothing
  2590 ;; This function is called by:
  2591 ;;		_UARTInitialise
  2592 ;; This function uses a non-reentrant model
  2593 ;;
  2594                           
  2595                           	psect	text10
  2596  007080                     __ptext10:
  2597                           	opt callstack 0
  2598  007080                     ___aldiv:
  2599                           	opt callstack 28
  2600                           
  2601                           ;incstack = 0
  2602  007080  0E00               	movlw	0
  2603  007082  6E0A               	movwf	___aldiv@sign,c
  2604  007084  AE08               	btfss	___aldiv@divisor+3,7,c
  2605  007086  D00A               	goto	l1537
  2606  007088  1E08               	comf	___aldiv@divisor+3,f,c
  2607  00708A  1E07               	comf	___aldiv@divisor+2,f,c
  2608  00708C  1E06               	comf	___aldiv@divisor+1,f,c
  2609  00708E  6C05               	negf	___aldiv@divisor,c
  2610  007090  0E00               	movlw	0
  2611  007092  2206               	addwfc	___aldiv@divisor+1,f,c
  2612  007094  2207               	addwfc	___aldiv@divisor+2,f,c
  2613  007096  2208               	addwfc	___aldiv@divisor+3,f,c
  2614  007098  0E01               	movlw	1
  2615  00709A  6E0A               	movwf	___aldiv@sign,c
  2616  00709C                     l1537:
  2617  00709C  AE04               	btfss	___aldiv@dividend+3,7,c
  2618  00709E  D00A               	goto	l1543
  2619  0070A0  1E04               	comf	___aldiv@dividend+3,f,c
  2620  0070A2  1E03               	comf	___aldiv@dividend+2,f,c
  2621  0070A4  1E02               	comf	___aldiv@dividend+1,f,c
  2622  0070A6  6C01               	negf	___aldiv@dividend,c
  2623  0070A8  0E00               	movlw	0
  2624  0070AA  2202               	addwfc	___aldiv@dividend+1,f,c
  2625  0070AC  2203               	addwfc	___aldiv@dividend+2,f,c
  2626  0070AE  2204               	addwfc	___aldiv@dividend+3,f,c
  2627  0070B0  0E01               	movlw	1
  2628  0070B2  1A0A               	xorwf	___aldiv@sign,f,c
  2629  0070B4                     l1543:
  2630  0070B4  0E00               	movlw	0
  2631  0070B6  6E0B               	movwf	___aldiv@quotient,c
  2632  0070B8  0E00               	movlw	0
  2633  0070BA  6E0C               	movwf	___aldiv@quotient+1,c
  2634  0070BC  0E00               	movlw	0
  2635  0070BE  6E0D               	movwf	___aldiv@quotient+2,c
  2636  0070C0  0E00               	movlw	0
  2637  0070C2  6E0E               	movwf	___aldiv@quotient+3,c
  2638  0070C4  5005               	movf	___aldiv@divisor,w,c
  2639  0070C6  1006               	iorwf	___aldiv@divisor+1,w,c
  2640  0070C8  1007               	iorwf	___aldiv@divisor+2,w,c
  2641  0070CA  1008               	iorwf	___aldiv@divisor+3,w,c
  2642  0070CC  B4D8               	btfsc	status,2,c
  2643  0070CE  D02A               	goto	l1565
  2644  0070D0  0E01               	movlw	1
  2645  0070D2  6E09               	movwf	___aldiv@counter,c
  2646  0070D4  D006               	goto	l1551
  2647  0070D6                     l1549:
  2648  0070D6  90D8               	bcf	status,0,c
  2649  0070D8  3605               	rlcf	___aldiv@divisor,f,c
  2650  0070DA  3606               	rlcf	___aldiv@divisor+1,f,c
  2651  0070DC  3607               	rlcf	___aldiv@divisor+2,f,c
  2652  0070DE  3608               	rlcf	___aldiv@divisor+3,f,c
  2653  0070E0  2A09               	incf	___aldiv@counter,f,c
  2654  0070E2                     l1551:
  2655  0070E2  AE08               	btfss	___aldiv@divisor+3,7,c
  2656  0070E4  D7F8               	goto	l1549
  2657  0070E6                     u1230:
  2658  0070E6  90D8               	bcf	status,0,c
  2659  0070E8  360B               	rlcf	___aldiv@quotient,f,c
  2660  0070EA  360C               	rlcf	___aldiv@quotient+1,f,c
  2661  0070EC  360D               	rlcf	___aldiv@quotient+2,f,c
  2662  0070EE  360E               	rlcf	___aldiv@quotient+3,f,c
  2663  0070F0  5005               	movf	___aldiv@divisor,w,c
  2664  0070F2  5C01               	subwf	___aldiv@dividend,w,c
  2665  0070F4  5006               	movf	___aldiv@divisor+1,w,c
  2666  0070F6  5802               	subwfb	___aldiv@dividend+1,w,c
  2667  0070F8  5007               	movf	___aldiv@divisor+2,w,c
  2668  0070FA  5803               	subwfb	___aldiv@dividend+2,w,c
  2669  0070FC  5008               	movf	___aldiv@divisor+3,w,c
  2670  0070FE  5804               	subwfb	___aldiv@dividend+3,w,c
  2671  007100  A0D8               	btfss	status,0,c
  2672  007102  D009               	goto	l1561
  2673  007104  5005               	movf	___aldiv@divisor,w,c
  2674  007106  5E01               	subwf	___aldiv@dividend,f,c
  2675  007108  5006               	movf	___aldiv@divisor+1,w,c
  2676  00710A  5A02               	subwfb	___aldiv@dividend+1,f,c
  2677  00710C  5007               	movf	___aldiv@divisor+2,w,c
  2678  00710E  5A03               	subwfb	___aldiv@dividend+2,f,c
  2679  007110  5008               	movf	___aldiv@divisor+3,w,c
  2680  007112  5A04               	subwfb	___aldiv@dividend+3,f,c
  2681  007114  800B               	bsf	___aldiv@quotient,0,c
  2682  007116                     l1561:
  2683  007116  90D8               	bcf	status,0,c
  2684  007118  3208               	rrcf	___aldiv@divisor+3,f,c
  2685  00711A  3207               	rrcf	___aldiv@divisor+2,f,c
  2686  00711C  3206               	rrcf	___aldiv@divisor+1,f,c
  2687  00711E  3205               	rrcf	___aldiv@divisor,f,c
  2688  007120  2E09               	decfsz	___aldiv@counter,f,c
  2689  007122  D7E1               	goto	u1230
  2690  007124                     l1565:
  2691  007124  500A               	movf	___aldiv@sign,w,c
  2692  007126  B4D8               	btfsc	status,2,c
  2693  007128  D008               	goto	l1569
  2694  00712A  1E0E               	comf	___aldiv@quotient+3,f,c
  2695  00712C  1E0D               	comf	___aldiv@quotient+2,f,c
  2696  00712E  1E0C               	comf	___aldiv@quotient+1,f,c
  2697  007130  6C0B               	negf	___aldiv@quotient,c
  2698  007132  0E00               	movlw	0
  2699  007134  220C               	addwfc	___aldiv@quotient+1,f,c
  2700  007136  220D               	addwfc	___aldiv@quotient+2,f,c
  2701  007138  220E               	addwfc	___aldiv@quotient+3,f,c
  2702  00713A                     l1569:
  2703  00713A  C00B  F001         	movff	___aldiv@quotient,?___aldiv
  2704  00713E  C00C  F002         	movff	___aldiv@quotient+1,?___aldiv+1
  2705  007142  C00D  F003         	movff	___aldiv@quotient+2,?___aldiv+2
  2706  007146  C00E  F004         	movff	___aldiv@quotient+3,?___aldiv+3
  2707  00714A  0012               	return		;funcret
  2708  00714C                     __end_of___aldiv:
  2709                           	opt callstack 0
  2710                           
  2711 ;; *************** function _UARTReadString *****************
  2712 ;; Defined at:
  2713 ;;		line 28 in file "uart.h"
  2714 ;; Parameters:    Size  Location     Type
  2715 ;;  Output          2    0[COMRAM] PTR unsigned char 
  2716 ;;		 -> main@Output(7), 
  2717 ;;  length          1    2[COMRAM] unsigned char 
  2718 ;; Auto vars:     Size  Location     Type
  2719 ;;  i               1    3[COMRAM] unsigned char 
  2720 ;; Return value:  Size  Location     Type
  2721 ;;                  1    wreg      void 
  2722 ;; Registers used:
  2723 ;;		wreg, fsr2l, fsr2h, status,2, status,0, cstack
  2724 ;; Tracked objects:
  2725 ;;		On entry : 0/0
  2726 ;;		On exit  : 0/0
  2727 ;;		Unchanged: 0/0
  2728 ;; Data sizes:     COMRAM   BANK0   BANK1   BANK2   BANK3   BANK4   BANK5
  2729 ;;      Params:         3       0       0       0       0       0       0
  2730 ;;      Locals:         1       0       0       0       0       0       0
  2731 ;;      Temps:          0       0       0       0       0       0       0
  2732 ;;      Totals:         4       0       0       0       0       0       0
  2733 ;;Total ram usage:        4 bytes
  2734 ;; Hardware stack levels used:    1
  2735 ;; Hardware stack levels required when called:    1
  2736 ;; This function calls:
  2737 ;;		_UARTReadChar
  2738 ;; This function is called by:
  2739 ;;		_main
  2740 ;; This function uses a non-reentrant model
  2741 ;;
  2742                           
  2743                           	psect	text11
  2744  006F1A                     __ptext11:
  2745                           	opt callstack 0
  2746  006F1A                     _UARTReadString:
  2747                           	opt callstack 29
  2748                           
  2749                           ;uart.h: 29: unsigned char i;;uart.h: 30: for(i=0;i<length;i++){
  2750                           
  2751                           ;incstack = 0
  2752  006F1A  0E00               	movlw	0
  2753  006F1C  6E04               	movwf	UARTReadString@i,c
  2754  006F1E  D00A               	goto	l2159
  2755  006F20                     l2155:
  2756                           
  2757                           ;uart.h: 31: Output[i] = UARTReadChar();
  2758  006F20  5004               	movf	UARTReadString@i,w,c
  2759  006F22  2401               	addwf	UARTReadString@Output,w,c
  2760  006F24  6ED9               	movwf	fsr2l,c
  2761  006F26  0E00               	movlw	0
  2762  006F28  2002               	addwfc	UARTReadString@Output+1,w,c
  2763  006F2A  6EDA               	movwf	fsr2h,c
  2764  006F2C  EC79  F037         	call	_UARTReadChar	;wreg free
  2765  006F30  6EDF               	movwf	indf2,c
  2766  006F32  2A04               	incf	UARTReadString@i,f,c
  2767  006F34                     l2159:
  2768  006F34  5003               	movf	UARTReadString@length,w,c
  2769  006F36  5C04               	subwf	UARTReadString@i,w,c
  2770  006F38  B0D8               	btfsc	status,0,c
  2771  006F3A  0012               	return	
  2772  006F3C  D7F1               	goto	l2155
  2773  006F3E                     __end_of_UARTReadString:
  2774                           	opt callstack 0
  2775                           
  2776 ;; *************** function _UARTReadChar *****************
  2777 ;; Defined at:
  2778 ;;		line 20 in file "uart.h"
  2779 ;; Parameters:    Size  Location     Type
  2780 ;;		None
  2781 ;; Auto vars:     Size  Location     Type
  2782 ;;		None
  2783 ;; Return value:  Size  Location     Type
  2784 ;;                  1    wreg      unsigned char 
  2785 ;; Registers used:
  2786 ;;		wreg, status,2
  2787 ;; Tracked objects:
  2788 ;;		On entry : 0/0
  2789 ;;		On exit  : 0/0
  2790 ;;		Unchanged: 0/0
  2791 ;; Data sizes:     COMRAM   BANK0   BANK1   BANK2   BANK3   BANK4   BANK5
  2792 ;;      Params:         0       0       0       0       0       0       0
  2793 ;;      Locals:         0       0       0       0       0       0       0
  2794 ;;      Temps:          0       0       0       0       0       0       0
  2795 ;;      Totals:         0       0       0       0       0       0       0
  2796 ;;Total ram usage:        0 bytes
  2797 ;; Hardware stack levels used:    1
  2798 ;; This function calls:
  2799 ;;		Nothing
  2800 ;; This function is called by:
  2801 ;;		_UARTReadString
  2802 ;; This function uses a non-reentrant model
  2803 ;;
  2804                           
  2805                           	psect	text12
  2806  006EF2                     __ptext12:
  2807                           	opt callstack 0
  2808  006EF2                     _UARTReadChar:
  2809                           	opt callstack 29
  2810                           
  2811                           ;uart.h: 21: while(!RCIF);
  2812                           
  2813                           ;incstack = 0
  2814  006EF2  AA9E               	btfss	3998,5,c	;volatile
  2815  006EF4  D7FE               	goto	_UARTReadChar
  2816                           
  2817                           ;uart.h: 22: if (OERR == 1){
  2818  006EF6  A2AB               	btfss	4011,1,c	;volatile
  2819  006EF8  D002               	goto	l901
  2820                           
  2821                           ;uart.h: 23: CREN = 0;
  2822  006EFA  98AB               	bcf	4011,4,c	;volatile
  2823                           
  2824                           ;uart.h: 24: CREN = 1;
  2825  006EFC  88AB               	bsf	4011,4,c	;volatile
  2826  006EFE                     l901:
  2827                           
  2828                           ;uart.h: 25: };uart.h: 26: return RCREG;
  2829  006EFE  50AE               	movf	4014,w,c	;volatile
  2830  006F00  0012               	return		;funcret
  2831  006F02                     __end_of_UARTReadChar:
  2832                           	opt callstack 0
  2833  0000                     
  2834                           	psect	rparam
  2835  0000                     tosu	equ	0xFFF
  2836                           tosh	equ	0xFFE
  2837                           tosl	equ	0xFFD
  2838                           stkptr	equ	0xFFC
  2839                           pclatu	equ	0xFFB
  2840                           pclath	equ	0xFFA
  2841                           pcl	equ	0xFF9
  2842                           tblptru	equ	0xFF8
  2843                           tblptrh	equ	0xFF7
  2844                           tblptrl	equ	0xFF6
  2845                           tablat	equ	0xFF5
  2846                           prodh	equ	0xFF4
  2847                           prodl	equ	0xFF3
  2848                           indf0	equ	0xFEF
  2849                           postinc0	equ	0xFEE
  2850                           postdec0	equ	0xFED
  2851                           preinc0	equ	0xFEC
  2852                           plusw0	equ	0xFEB
  2853                           fsr0h	equ	0xFEA
  2854                           fsr0l	equ	0xFE9
  2855                           wreg	equ	0xFE8
  2856                           indf1	equ	0xFE7
  2857                           postinc1	equ	0xFE6
  2858                           postdec1	equ	0xFE5
  2859                           preinc1	equ	0xFE4
  2860                           plusw1	equ	0xFE3
  2861                           fsr1h	equ	0xFE2
  2862                           fsr1l	equ	0xFE1
  2863                           bsr	equ	0xFE0
  2864                           indf2	equ	0xFDF
  2865                           postinc2	equ	0xFDE
  2866                           postdec2	equ	0xFDD
  2867                           preinc2	equ	0xFDC
  2868                           plusw2	equ	0xFDB
  2869                           fsr2h	equ	0xFDA
  2870                           fsr2l	equ	0xFD9
  2871                           status	equ	0xFD8


Data Sizes:
    Strings     0
    Constant    0
    Data        7
    BSS         0
    Persistent  0
    Stack       0

Auto Spaces:
    Space          Size  Autos    Used
    COMRAM          127    107     114
    BANK0           128      0       0
    BANK1           256      0       0
    BANK2           256      0       0
    BANK3           256      0       0
    BANK4           256      0       0
    BANK5           244      0       0

Pointer List with Targets:

    servoRun@Output	PTR unsigned char  size(2) Largest target is 7
		 -> main@Output(COMRAM[7]), 

    UARTReadString@Output	PTR unsigned char  size(2) Largest target is 7
		 -> main@Output(COMRAM[7]), 


Critical Paths under _main in COMRAM

    _main->_servoRun
    _servoRun->___fltol
    ___fltol->___fladd
    ___flmul->___fldiv
    ___fldiv->___xxtofl
    ___fladd->___flmul
    _initialise->_UARTInitialise
    _UARTInitialise->___aldiv

Critical Paths under _main in BANK0

    None.

Critical Paths under _main in BANK1

    None.

Critical Paths under _main in BANK2

    None.

Critical Paths under _main in BANK3

    None.

Critical Paths under _main in BANK4

    None.

Critical Paths under _main in BANK5

    None.

Call Graph Tables:

 ---------------------------------------------------------------------------------
 (Depth) Function   	        Calls       Base Space   Used Autos Params    Refs
 ---------------------------------------------------------------------------------
 (0) _main                                                 7     7      0    7927
                                            100 COMRAM     7     7      0
                     _UARTReadString
                         _initialise
                           _servoRun
 ---------------------------------------------------------------------------------
 (1) _servoRun                                            10     8      2    6800
                                             90 COMRAM    10     8      2
                            ___fladd
                            ___fldiv
                            ___flmul
                            ___fltol
                           ___xxtofl
                         _pulseDelay
 ---------------------------------------------------------------------------------
 (2) _pulseDelay                                           2     0      2     219
                                              0 COMRAM     2     0      2
 ---------------------------------------------------------------------------------
 (2) ___xxtofl                                            14    10      4     398
                                              0 COMRAM    14    10      4
 ---------------------------------------------------------------------------------
 (2) ___fltol                                             10     6      4     305
                                             80 COMRAM    10     6      4
                            ___fladd (ARG)
                            ___fldiv (ARG)
                            ___flmul (ARG)
                           ___xxtofl (ARG)
 ---------------------------------------------------------------------------------
 (2) ___flmul                                             25    17      8    1744
                                             39 COMRAM    25    17      8
                            ___fldiv (ARG)
                           ___xxtofl (ARG)
 ---------------------------------------------------------------------------------
 (2) ___fldiv                                             25    17      8    1399
                                             14 COMRAM    25    17      8
                           ___xxtofl (ARG)
 ---------------------------------------------------------------------------------
 (2) ___fladd                                             16     8      8    2388
                                             64 COMRAM    16     8      8
                            ___fldiv (ARG)
                            ___flmul (ARG)
                           ___xxtofl (ARG)
 ---------------------------------------------------------------------------------
 (1) _initialise                                           0     0      0     836
                     _UARTInitialise
 ---------------------------------------------------------------------------------
 (2) _UARTInitialise                                      14    10      4     836
                                             14 COMRAM    14    10      4
                            ___aldiv
 ---------------------------------------------------------------------------------
 (3) ___aldiv                                             14     6      8     604
                                              0 COMRAM    14     6      8
 ---------------------------------------------------------------------------------
 (1) _UARTReadString                                       4     1      3     242
                                              0 COMRAM     4     1      3
                       _UARTReadChar
 ---------------------------------------------------------------------------------
 (2) _UARTReadChar                                         0     0      0       0
 ---------------------------------------------------------------------------------
 Estimated maximum stack depth 3
 ---------------------------------------------------------------------------------

 Call Graph Graphs:

 _main (ROOT)
   _UARTReadString
     _UARTReadChar
   _initialise
     _UARTInitialise
       ___aldiv
   _servoRun
     ___fladd
       ___fldiv (ARG)
         ___xxtofl (ARG)
       ___flmul (ARG)
         ___fldiv (ARG)
           ___xxtofl (ARG)
         ___xxtofl (ARG)
       ___xxtofl (ARG)
     ___fldiv
       ___xxtofl (ARG)
     ___flmul
       ___fldiv (ARG)
         ___xxtofl (ARG)
       ___xxtofl (ARG)
     ___fltol
       ___fladd (ARG)
         ___fldiv (ARG)
           ___xxtofl (ARG)
         ___flmul (ARG)
           ___fldiv (ARG)
             ___xxtofl (ARG)
           ___xxtofl (ARG)
         ___xxtofl (ARG)
       ___fldiv (ARG)
         ___xxtofl (ARG)
       ___flmul (ARG)
         ___fldiv (ARG)
           ___xxtofl (ARG)
         ___xxtofl (ARG)
       ___xxtofl (ARG)
     ___xxtofl
     _pulseDelay

 Address spaces:
Name               Size   Autos  Total    Cost      Usage
BIGRAM             5F3      0       0      16        0.0%
EEDATA             100      0       0       0        0.0%
BITBANK4           100      0       0      11        0.0%
BANK4              100      0       0      12        0.0%
BITBANK3           100      0       0       9        0.0%
BANK3              100      0       0      10        0.0%
BITBANK2           100      0       0       7        0.0%
BANK2              100      0       0       8        0.0%
BITBANK1           100      0       0       5        0.0%
BANK1              100      0       0       6        0.0%
BITBANK5            F4      0       0      15        0.0%
BANK5               F4      0       0      13        0.0%
BITBANK0            80      0       0       3        0.0%
BANK0               80      0       0       4        0.0%
BITCOMRAM           7F      0       0       0        0.0%
COMRAM              7F     6B      72       1       89.8%
BITSFR_5             0      0       0     200        0.0%
SFR_5                0      0       0     200        0.0%
BITSFR_4             0      0       0     200        0.0%
SFR_4                0      0       0     200        0.0%
BITSFR_3             0      0       0     200        0.0%
SFR_3                0      0       0     200        0.0%
BITSFR_2             0      0       0     200        0.0%
SFR_2                0      0       0     200        0.0%
BITSFR_1             0      0       0     200        0.0%
SFR_1                0      0       0     200        0.0%
BITSFR               0      0       0     200        0.0%
SFR                  0      0       0     200        0.0%
STACK                0      0       0       2        0.0%
NULL                 0      0       0       0        0.0%
ABS                  0      0      72      14        0.0%
DATA                 0      0      72      17        0.0%
CODE                 0      0       0       0        0.0%


Microchip Technology PIC18 Macro Assembler V2.05 build -831301201 
Symbol Table                                                                                   Tue Apr 30 15:24:54 2019

            ___fldiv@aexp 0027              ___fldiv@bexp 0026              ___fldiv@sign 001F  
          servoRun@Output 005B                        l74 6F10               __CFG_BORV$3 000000  
            __CFG_CP0$OFF 000000              __CFG_CP1$OFF 000000              __CFG_CP2$OFF 000000  
            __CFG_CP3$OFF 000000                       l613 78A4                       l614 7882  
                     l715 7D8C                       l707 7D06                       l708 7D02  
                     l901 6EFE                       l629 7976                       l638 79DC  
                     l639 79D8                       l680 76B6                       l746 7310  
                     l739 7292                       l668 764C                       l679 76BA  
                     l698 7AEE                       _GIE 007F97              __CFG_CPB$OFF 000000  
            __CFG_CPD$OFF 000000                       _PSA 007EAB                       wreg 000FE8  
            ___flmul@aexp 0039              ___flmul@bexp 003A              ___flmul@sign 0034  
            ___flmul@temp 003F              ___flmul@prod 003B              __CFG_LVP$OFF 000000  
            ___fltol@exp1 005A              __CFG_WDT$OFF 000000                      l2021 7CCC  
                    l2015 7CAE                      l2103 706E                      l2041 7D4A  
                    l2121 72C6                      l2113 72A2                      l2131 7336  
                    l2123 72D2                      l2203 6FA4                      l2045 7D68  
                    l2133 7342                      l2125 72F8                      l2119 72C0  
                    l2057 7DAA                      l2155 6F20                      l1605 778E  
                    l2085 702E                      l2069 6FE4                      l2149 7382  
                    l2159 6F34                      l1551 70E2                      l1543 70B4  
                    l2095 7046                      l2183 73A8                      l1561 7116  
                    l1537 709C                      l1641 77FA                      l1633 77DA  
                    l1609 7792                      l2097 7052                      l2089 703E  
                    l1707 78EA                      l1811 750A                      l2195 74BC  
                    l2179 73A0                      l1549 70D6                      l1565 7124  
                    l1581 723C                      l1709 78EE                      l1717 7900  
                    l1629 77D6                      l1735 799A                      l1751 79BA  
                    l1727 7966                      l1671 7836                      l1831 754A  
                    l1807 7506                      l1569 713A                      l1745 79B0  
                    l1913 7722                      l1771 7A22                      l1683 7890  
                    l1923 7758                      l1827 7546                      l1685 7894  
                    l1925 775A                      l1917 774C                      l1909 76FE  
                    l1853 75AC                      l1845 7594                      l1783 7A50  
                    l1871 7624                      l1863 75FC                      l1839 757E  
                    l1785 7A52                      l1945 7A9A                      l1779 7A48  
                    l1699 78C8                      l1883 7662                      l1963 7ADA  
                    l1947 7A9E                      l1877 764A                      l1973 7B0C  
                    l1965 7ADE                      l1949 7AAE                      l1889 7680  
                    _BRGH 007D62                      _CREN 007D5C                      _T0CS 007EAD  
                    u2020 7AFA                      u1230 70E6                      u2110 7D58  
                    u2030 7C70                      u2120 7D76                      u1305 7210  
                    u2035 7C66                      u1420 7858                      u2140 6FD2  
                    u1430 7868                      u2070 7CFC                      u2150 7002  
                    u1600 79BE                      u1440 786A                      u1265 715E  
                    u1275 7196                      u2155 6FF8                      u1620 79D2  
                    u1470 78AC                      u2190 7058                      u2270 734C  
                    u2334 748C                      u1295 71D8                      u2335 7488  
                    u2351 6F9C                      u2344 74B0                      u2345 74AC  
                    u1680 7A2E                      u1920 770C                      u1930 7730  
                    u1880 76B0                      _RCIE 007CED                      _RCIF 007CF5  
                    _OERR 007D59                      _SPEN 007D5F                      _TXEN 007D65  
                    _SYNC 007D64                      _main 6F8E                      indf2 000FDF  
                    fsr1l 000FE1                      fsr2l 000FD9                      prodh 000FF4  
                    prodl 000FF3                      start 0000             __CFG_IESO$OFF 000000  
         ___fldiv@new_exp 0020             __CFG_MCLRE$ON 000000              ___param_bank 000000  
           ___fltol@sign1 0059           __end_of___aldiv 714C           __end_of___fladd 7A6E  
                   ?_main 0001           __end_of___fldiv 7762           __end_of___flmul 7DC0  
         __end_of___fltol 7080                     _IRCF0 007E9C                     _IRCF1 007E9D  
                   _IRCF2 007E9E                     _RCREG 000FAE                     _TMR0H 000FD7  
                   _TMR0L 000FD6                     _SPBRG 000FAF                     _PORTB 000F81  
                   _TRISB 000F93             __CFG_PWRT$OFF 000000             __CFG_WRT0$OFF 000000  
           __CFG_WRT1$OFF 000000             __CFG_WRT2$OFF 000000             __CFG_WRT3$OFF 000000  
          __CFG_EBTR0$OFF 000000            __CFG_FCMEN$OFF 000000            __CFG_EBTR1$OFF 000000  
          __CFG_EBTR2$OFF 000000            __CFG_EBTR3$OFF 000000             __CFG_WRTB$OFF 000000  
           __CFG_WRTC$OFF 000000             __CFG_WRTD$OFF 000000            __CFG_EBTRB$OFF 000000  
                   tablat 000FF5                     plusw1 000FE3                     plusw2 000FDB  
                   status 000FD8            __CFG_PBADEN$ON 000000           __initialization 6F3E  
            __end_of_main 6FC6                    ??_main 0065             __activetblptr 000000  
                  _T08BIT 007EAE   __size_of_UARTReadString 0024   __size_of_UARTInitialise 0108  
                  _TMR0IF 007F92                    _TMR0ON 007EAF                    _TRISC6 007CA6  
                  _TRISC7 007CA7          __end_of___xxtofl 7394            __CFG_XINST$OFF 000000  
               ??___aldiv 0009                 ??___fladd 0049                 ??___fldiv 0017  
          __CFG_STVREN$ON 000000                 ??___flmul 0030                 ??___fltol 0055  
            __pdataCOMRAM 006C          __end_of_servoRun 74DA                    tblptrh 000FF7  
                  tblptrl 000FF6                    tblptru 000FF8              ___xxtofl@arg 000B  
            ___xxtofl@exp 000A              ___xxtofl@val 0001                __accesstop 0080  
 __end_of__initialization 6F5E             ___rparam_used 000001                ___fltol@f1 0051  
          __pcstackCOMRAM 0001  servoRun@fianlDelayCycles 0062      pulseDelay@delaySteps 0001  
               ?___xxtofl 0001             ?_UARTReadChar 0001            _UARTReadString 6F1A  
          _UARTInitialise 714C                   __Hparam 0000                   __Lparam 0000  
               ?_servoRun 005B                   ___aldiv 7080                   ___fladd 7762  
                 ___fldiv 74DA                   ___flmul 7A6E                   ___fltol 6FC6  
                 __pcinit 6F3E                   __ramtop 0600                _initialise 6F64  
                 __ptext0 6F8E                   __ptext1 7394                   __ptext2 6F02  
                 __ptext3 7254                   __ptext4 6FC6                   __ptext5 7A6E  
                 __ptext6 74DA                   __ptext7 7762                   __ptext8 6F64  
                 __ptext9 714C                ??___xxtofl 0005          ___aldiv@dividend 0001  
  __end_of_UARTReadString 6F3E            ??_UARTReadChar 0001    __end_of_UARTInitialise 7254  
    end_of_initialization 6F5E       servoRun@delayCycles 0060          ___aldiv@quotient 000B  
              ??_servoRun 005D                   postdec1 000FE5                   postinc0 000FEE  
             ___fladd@grs 0050             ___xxtofl@sign 0009                _pulseDelay 6F02  
         ?_UARTReadString 0001           ?_UARTInitialise 000F               ___fldiv@grs 0022  
             ___fldiv@rem 001B    UARTInitialise@baudrate 000F                main@Output 0065  
             ___flmul@grs 0035             __pidataCOMRAM 6EEB               ?_initialise 0001  
     start_initialization 6F3E           UARTReadString@i 0004          __CFG_OSC$INTIO67 000000  
         UARTInitialise@x 001B      __end_of_UARTReadChar 6F02          __CFG_LPT1OSC$OFF 000000  
               ___fladd@a 0045                 ___fladd@b 0041                 ___fldiv@a 0013  
               ___fldiv@b 000F                 ___flmul@a 002C                 ___flmul@b 0028  
             ?_pulseDelay 0001         __size_of___xxtofl 0140       __size_of_initialise 002A  
    UARTReadString@Output 0001      UARTReadString@length 0003         __CFG_CCP2MX$PORTC 000000  
                ?___aldiv 0001                  ?___fladd 0041                  ?___fldiv 000F  
                ?___flmul 0028                  ?___fltol 0051         __size_of_servoRun 0146  
         ___aldiv@divisor 0005           ___aldiv@counter 0009          __CFG_WDTPS$32768 000000  
     __size_of_pulseDelay 0018                 main@F2438 006C          ??_UARTReadString 0004  
        ??_UARTInitialise 0013       servoRun@servoNumber 0064                 copy_data0 6F52  
   __size_of_UARTReadChar 0010                  __Hrparam 0000                  __Lrparam 0000  
      __CFG_BOREN$SBORDIS 000000          __size_of___aldiv 00CC          __size_of___fladd 030C  
        __size_of___fldiv 0288          __size_of___flmul 0352          __size_of___fltol 00BA  
            ??_initialise 001D                  ___xxtofl 7254                  __ptext10 7080  
                __ptext11 6F1A                  __ptext12 6EF2              _UARTReadChar 6EF2  
           __size_of_main 0038        __end_of_initialise 6F8E                  _servoRun 7394  
            ??_pulseDelay 0003        __end_of_pulseDelay 6F1A              ___aldiv@sign 000A  
           ___fladd@signs 004D              ___fladd@aexp 004E              ___fladd@bexp 004F  
